gplink-0.13.4 alpha
Copyright (c) 1998-2005 gputils project
Listing File Generated: 5-19-2009  12:00:28
 
 
Address  Value    Disassembly              Source
-------  -----    -----------              ------
                                           ;--------------------------------------------------------
                                           ; File Created by SDCC : FreeWare ANSI-C Compiler
                                           ; Version 2.6.1 #4482 (Mar 15 2009)
                                           ; This file generated Mon May 18 09:33:37 2009
                                           ;--------------------------------------------------------
                                           ; PIC16 port for the Microchip 16-bit core micros
                                           ;--------------------------------------------------------
                                           	list	p=18f4550
                                           
                                           	radix dec
                                           
                                           ;--------------------------------------------------------
                                           ; public variables in this module
                                           ;--------------------------------------------------------
                                           	global _application_data
                                           
                                           ;--------------------------------------------------------
                                           ; extern variables in this module
                                           ;--------------------------------------------------------
                                           	extern _ep2_num_bytes_to_send
                                           	extern _ep2_source_data
                                           	extern _device_descriptor
                                           	extern _configuration_descriptor
                                           	extern _string_descriptor
                                           	extern _str0
                                           	extern _str1
                                           	extern _str2
                                           	extern _str3
                                           	extern _ep_init
                                           	extern _ep_in
                                           	extern _ep_out
                                           	extern _ep_setup
                                           	extern _application_main
                                           
                                           ;--------------------------------------------------------
                                           ; global & static initialisations
                                           ;--------------------------------------------------------
                                           ; ; Starting pCode block for absolute Ival
                                           S_application_iface__application_data	code	0X002000
                                           _application_data:
002000   8a00     bsf	0, 0x5, 0            	DB	0x00, LOW(_device_descriptor), HIGH(_device_descriptor), UPPER(_device_descriptor), LOW(_configuration_descriptor), HIGH(_configuration_descriptor), UPPER(_configuration_descriptor), LOW(_string_descriptor), HIGH(_string_descriptor), UPPER(_string_descriptor), LOW(_ep_init), HIGH(_ep_init)
002002   0021     dw	0x21  ;unknown opcode 
002004   21ee     addwfc	0xee, 0, 0x1      
002006   5400     subfwb	0, 0, 0           
002008   0022     dw	0x22  ;unknown opcode 
00200a   22f6     addwfc	0xf6, 0x1, 0      
00200c   9200     bcf	0, 0x1, 0            	DB	UPPER(_ep_init), LOW(_ep_in), HIGH(_ep_in), UPPER(_ep_in), LOW(_ep_out), HIGH(_ep_out), UPPER(_ep_out), LOW(_ep_setup), HIGH(_ep_setup), UPPER(_ep_setup), LOW(_application_main), HIGH(_application_main)
00200e   0023     dw	0x23  ;unknown opcode 
002010   242e     addwf	0x2e, 0, 0         
002012   6a00     clrf	0, 0                
002014   0024     dw	0x24  ;unknown opcode 
002016   261c     addwf	0x1c, 0x1, 0       
002018   0000     nop                      	DB	UPPER(_application_main)
                                           
                                           ; I code from now on!
                                           
                                           
                                           ; Statistics:
                                           ; code size:	    6 (0x0006) bytes ( 0.00%)
                                           ;           	    3 (0x0003) words
                                           ; udata size:	    0 (0x0000) bytes ( 0.00%)
                                           ; access size:	    0 (0x0000) bytes
                                           
                                           
                                           	end
                                           ;--------------------------------------------------------
                                           ; File Created by SDCC : FreeWare ANSI-C Compiler
                                           ; Version 2.6.1 #4482 (Mar 15 2009)
                                           ; This file generated Mon May 18 09:33:37 2009
                                           ;--------------------------------------------------------
                                           ; PIC16 port for the Microchip 16-bit core micros
                                           ;--------------------------------------------------------
                                           	list	p=18f4550
                                           
                                           	radix dec
                                           
                                           ;--------------------------------------------------------
                                           ; public variables in this module
                                           ;--------------------------------------------------------
                                           	global _totol
                                           	global _totoh
                                           	global _init_pwm
                                           	global _application_main
                                           	global _high_priority_isr
                                           	global _low_priority_isr
                                           
                                           ;--------------------------------------------------------
                                           ; extern variables in this module
                                           ;--------------------------------------------------------
                                           	extern _SPPDATAbits
                                           	extern _SPPCFGbits
                                           	extern _SPPEPSbits
                                           	extern _SPPCONbits
                                           	extern _UFRMLbits
                                           	extern _UFRMHbits
                                           	extern _UIRbits
                                           	extern _UIEbits
                                           	extern _UEIRbits
                                           	extern _UEIEbits
                                           	extern _USTATbits
                                           	extern _UCONbits
                                           	extern _UADDRbits
                                           	extern _UCFGbits
                                           	extern _UEP0bits
                                           	extern _UEP1bits
                                           	extern _UEP2bits
                                           	extern _UEP3bits
                                           	extern _UEP4bits
                                           	extern _UEP5bits
                                           	extern _UEP6bits
                                           	extern _UEP7bits
                                           	extern _UEP8bits
                                           	extern _UEP9bits
                                           	extern _UEP10bits
                                           	extern _UEP11bits
                                           	extern _UEP12bits
                                           	extern _UEP13bits
                                           	extern _UEP14bits
                                           	extern _UEP15bits
                                           	extern _PORTAbits
                                           	extern _PORTBbits
                                           	extern _PORTCbits
                                           	extern _PORTDbits
                                           	extern _PORTEbits
                                           	extern _LATAbits
                                           	extern _LATBbits
                                           	extern _LATCbits
                                           	extern _LATDbits
                                           	extern _LATEbits
                                           	extern _TRISAbits
                                           	extern _TRISBbits
                                           	extern _TRISCbits
                                           	extern _TRISDbits
                                           	extern _TRISEbits
                                           	extern _OSCTUNEbits
                                           	extern _PIE1bits
                                           	extern _PIR1bits
                                           	extern _IPR1bits
                                           	extern _PIE2bits
                                           	extern _PIR2bits
                                           	extern _IPR2bits
                                           	extern _EECON1bits
                                           	extern _RCSTAbits
                                           	extern _TXSTAbits
                                           	extern _T3CONbits
                                           	extern _CMCONbits
                                           	extern _CVRCONbits
                                           	extern _ECCP1ASbits
                                           	extern _ECCP1DELbits
                                           	extern _BAUDCONbits
                                           	extern _CCP2CONbits
                                           	extern _CCP1CONbits
                                           	extern _ADCON2bits
                                           	extern _ADCON1bits
                                           	extern _ADCON0bits
                                           	extern _SSPCON2bits
                                           	extern _SSPCON1bits
                                           	extern _SSPSTATbits
                                           	extern _T2CONbits
                                           	extern _T1CONbits
                                           	extern _RCONbits
                                           	extern _WDTCONbits
                                           	extern _HLVDCONbits
                                           	extern _OSCCONbits
                                           	extern _T0CONbits
                                           	extern _STATUSbits
                                           	extern _FSR2Hbits
                                           	extern _BSRbits
                                           	extern _FSR1Hbits
                                           	extern _FSR0Hbits
                                           	extern _INTCON3bits
                                           	extern _INTCON2bits
                                           	extern _INTCONbits
                                           	extern _TBLPTRUbits
                                           	extern _PCLATHbits
                                           	extern _PCLATUbits
                                           	extern _STKPTRbits
                                           	extern _TOSUbits
                                           	extern _usb_device_state
                                           	extern _usb_active_cfg
                                           	extern _usb_active_alt_setting
                                           	extern _codeusecnt
                                           	extern _SPPDATA
                                           	extern _SPPCFG
                                           	extern _SPPEPS
                                           	extern _SPPCON
                                           	extern _UFRML
                                           	extern _UFRMH
                                           	extern _UIR
                                           	extern _UIE
                                           	extern _UEIR
                                           	extern _UEIE
                                           	extern _USTAT
                                           	extern _UCON
                                           	extern _UADDR
                                           	extern _UCFG
                                           	extern _UEP0
                                           	extern _UEP1
                                           	extern _UEP2
                                           	extern _UEP3
                                           	extern _UEP4
                                           	extern _UEP5
                                           	extern _UEP6
                                           	extern _UEP7
                                           	extern _UEP8
                                           	extern _UEP9
                                           	extern _UEP10
                                           	extern _UEP11
                                           	extern _UEP12
                                           	extern _UEP13
                                           	extern _UEP14
                                           	extern _UEP15
                                           	extern _PORTA
                                           	extern _PORTB
                                           	extern _PORTC
                                           	extern _PORTD
                                           	extern _PORTE
                                           	extern _LATA
                                           	extern _LATB
                                           	extern _LATC
                                           	extern _LATD
                                           	extern _LATE
                                           	extern _TRISA
                                           	extern _TRISB
                                           	extern _TRISC
                                           	extern _TRISD
                                           	extern _TRISE
                                           	extern _OSCTUNE
                                           	extern _PIE1
                                           	extern _PIR1
                                           	extern _IPR1
                                           	extern _PIE2
                                           	extern _PIR2
                                           	extern _IPR2
                                           	extern _EECON1
                                           	extern _EECON2
                                           	extern _EEDATA
                                           	extern _EEADR
                                           	extern _RCSTA
                                           	extern _TXSTA
                                           	extern _TXREG
                                           	extern _RCREG
                                           	extern _SPBRG
                                           	extern _SPBRGH
                                           	extern _T3CON
                                           	extern _TMR3L
                                           	extern _TMR3H
                                           	extern _CMCON
                                           	extern _CVRCON
                                           	extern _ECCP1AS
                                           	extern _ECCP1DEL
                                           	extern _BAUDCON
                                           	extern _CCP2CON
                                           	extern _CCPR2L
                                           	extern _CCPR2H
                                           	extern _CCP1CON
                                           	extern _CCPR1L
                                           	extern _CCPR1H
                                           	extern _ADCON2
                                           	extern _ADCON1
                                           	extern _ADCON0
                                           	extern _ADRESL
                                           	extern _ADRESH
                                           	extern _SSPCON2
                                           	extern _SSPCON1
                                           	extern _SSPSTAT
                                           	extern _SSPADD
                                           	extern _SSPBUF
                                           	extern _T2CON
                                           	extern _PR2
                                           	extern _TMR2
                                           	extern _T1CON
                                           	extern _TMR1L
                                           	extern _TMR1H
                                           	extern _RCON
                                           	extern _WDTCON
                                           	extern _HLVDCON
                                           	extern _OSCCON
                                           	extern _T0CON
                                           	extern _TMR0L
                                           	extern _TMR0H
                                           	extern _STATUS
                                           	extern _FSR2L
                                           	extern _FSR2H
                                           	extern _PLUSW2
                                           	extern _PREINC2
                                           	extern _POSTDEC2
                                           	extern _POSTINC2
                                           	extern _INDF2
                                           	extern _BSR
                                           	extern _FSR1L
                                           	extern _FSR1H
                                           	extern _PLUSW1
                                           	extern _PREINC1
                                           	extern _POSTDEC1
                                           	extern _POSTINC1
                                           	extern _INDF1
                                           	extern _WREG
                                           	extern _FSR0L
                                           	extern _FSR0H
                                           	extern _PLUSW0
                                           	extern _PREINC0
                                           	extern _POSTDEC0
                                           	extern _POSTINC0
                                           	extern _INDF0
                                           	extern _INTCON3
                                           	extern _INTCON2
                                           	extern _INTCON
                                           	extern _PRODL
                                           	extern _PRODH
                                           	extern _TABLAT
                                           	extern _TBLPTRL
                                           	extern _TBLPTRH
                                           	extern _TBLPTRU
                                           	extern _PCL
                                           	extern _PCLATH
                                           	extern _PCLATU
                                           	extern _STKPTR
                                           	extern _TOSL
                                           	extern _TOSH
                                           	extern _TOSU
                                           	extern _dispatch_usb_event
                                           	extern _usb_sleep
                                           	extern _init_codeuses
                                           ;--------------------------------------------------------
                                           ;	Equates to used internal registers
                                           ;--------------------------------------------------------
                                           STATUS	equ	0xfd8
                                           PCLATH	equ	0xffa
                                           PCLATU	equ	0xffb
                                           WREG	equ	0xfe8
                                           BSR	equ	0xfe0
                                           FSR0L	equ	0xfe9
                                           FSR0H	equ	0xfea
                                           FSR1L	equ	0xfe1
                                           FSR2L	equ	0xfd9
                                           POSTDEC1	equ	0xfe5
                                           PREINC1	equ	0xfe4
                                           PRODL	equ	0xff3
                                           PRODH	equ	0xff4
                                           
                                           
                                           ; Internal registers
                                           .registers	udata_ovr	0x0000
                                           r0x00	res	1
                                           r0x01	res	1
                                           r0x02	res	1
                                           r0x03	res	1
                                           
                                           udata_main_0	udata
                                           _totol	res	1
                                           
                                           udata_main_1	udata
                                           _totoh	res	1
                                           
                                           ;--------------------------------------------------------
                                           ; global & static initialisations
                                           ;--------------------------------------------------------
                                           ; ; Starting pCode block
                                           S_main__high_priority_isr	code	0X002020
                                           _high_priority_isr:
                                           ;	.line	83; main.c	void high_priority_isr(void) interrupt
002020   cfe8     movff	0xfe8, 0xfe5       	MOVFF	WREG, POSTDEC1
002022   ffe5
002024   cfd8     movff	0xfd8, 0xfe5       	MOVFF	STATUS, POSTDEC1
002026   ffe5
002028   cfe0     movff	0xfe0, 0xfe5       	MOVFF	BSR, POSTDEC1
00202a   ffe5
00202c   cff3     movff	0xff3, 0xfe5       	MOVFF	PRODL, POSTDEC1
00202e   ffe5
002030   cff4     movff	0xff4, 0xfe5       	MOVFF	PRODH, POSTDEC1
002032   ffe5
002034   cfe9     movff	0xfe9, 0xfe5       	MOVFF	FSR0L, POSTDEC1
002036   ffe5
002038   cfea     movff	0xfea, 0xfe5       	MOVFF	FSR0H, POSTDEC1
00203a   ffe5
00203c   cffa     movff	0xffa, 0xfe5       	MOVFF	PCLATH, POSTDEC1
00203e   ffe5
002040   cffb     movff	0xffb, 0xfe5       	MOVFF	PCLATU, POSTDEC1
002042   ffe5
002044   c000     movff	0, 0xfe5           	MOVFF	r0x00, POSTDEC1
002046   ffe5
002048   c001     movff	0x1, 0xfe5         	MOVFF	r0x01, POSTDEC1
00204a   ffe5
00204c   c002     movff	0x2, 0xfe5         	MOVFF	r0x02, POSTDEC1
00204e   ffe5
002050   c003     movff	0x3, 0xfe5         	MOVFF	r0x03, POSTDEC1
002052   ffe5
                                           ;	.line	85; main.c	if(INTCONbits.TMR0IF)
002054   a4f2     btfss	0xf2, 0x2, 0       	BTFSS	_INTCONbits, 2
002056   d016     bra	0x2084               	BRA	_00118_DS_
                                           ;	.line	87; main.c	ftoggle_A4();
002058   6a00     clrf	0, 0                	CLRF	r0x00
00205a   b880     btfsc	0x80, 0x4, 0       	BTFSC	_PORTAbits, 4
00205c   2a00     incf	0, 0x1, 0           	INCF	r0x00, F
00205e   5000     movf	0, 0, 0             	MOVF	r0x00, W
002060   80d8     bsf	0xd8, 0, 0           	BSF	STATUS, 0
002062   66e8     tstfsz	0xe8, 0           	TSTFSZ	WREG
002064   90d8     bcf	0xd8, 0, 0           	BCF	STATUS, 0
002066   6a00     clrf	0, 0                	CLRF	r0x00
002068   3600     rlcf	0, 0x1, 0           	RLCF	r0x00, F
00206a   5000     movf	0, 0, 0             	MOVF	r0x00, W
00206c   0b01     andlw	0x1                	ANDLW	0x01
00206e   38e8     swapf	0xe8, 0, 0         	SWAPF	WREG, W
002070   6ef4     movwf	0xf4, 0            	MOVWF	PRODH
002072   5080     movf	0x80, 0, 0          	MOVF	_PORTAbits, W
002074   0bef     andlw	0xef               	ANDLW	0xef
002076   10f4     iorwf	0xf4, 0, 0         	IORWF	PRODH, W
002078   6e80     movwf	0x80, 0            	MOVWF	_PORTAbits
                                           ;	.line	88; main.c	TMR0H=totoh;
00207a   c116     movff	0x116, 0xfd7       	MOVFF	_totoh, _TMR0H
00207c   ffd7
                                           ;	.line	89; main.c	TMR0L=totol;
00207e   c115     movff	0x115, 0xfd6       	MOVFF	_totol, _TMR0L
002080   ffd6
                                           ;	.line	90; main.c	INTCONbits.TMR0IF = 0;
002082   94f2     bcf	0xf2, 0x2, 0         	BCF	_INTCONbits, 2
                                           _00118_DS_:
                                           ;	.line	93; main.c	if(INTCON3bits.INT1IF)
002084   a0f0     btfss	0xf0, 0, 0         	BTFSS	_INTCON3bits, 0
002086   d032     bra	0x20ec               	BRA	_00123_DS_
                                           ;	.line	95; main.c	if(PIN_SSCOD1) codeusecnt[1]++; else codeusecnt[1]--;
002088   a681     btfss	0x81, 0x3, 0       	BTFSS	_PORTBbits, 3
00208a   d019     bra	0x20be               	BRA	_00120_DS_
00208c   c10c     movff	0x10c, 0           	MOVFF	(_codeusecnt + 4), r0x00
00208e   f000
002090   c10d     movff	0x10d, 0x1         	MOVFF	(_codeusecnt + 5), r0x01
002092   f001
002094   c10e     movff	0x10e, 0x2         	MOVFF	(_codeusecnt + 6), r0x02
002096   f002
002098   c10f     movff	0x10f, 0x3         	MOVFF	(_codeusecnt + 7), r0x03
00209a   f003
00209c   2a00     incf	0, 0x1, 0           	INCF	r0x00, F
00209e   b0d8     btfsc	0xd8, 0, 0         	BTFSC	STATUS, 0
0020a0   2a01     incf	0x1, 0x1, 0         	INCF	r0x01, F
0020a2   b0d8     btfsc	0xd8, 0, 0         	BTFSC	STATUS, 0
0020a4   2a02     incf	0x2, 0x1, 0         	INCF	r0x02, F
0020a6   b0d8     btfsc	0xd8, 0, 0         	BTFSC	STATUS, 0
0020a8   2a03     incf	0x3, 0x1, 0         	INCF	r0x03, F
0020aa   5000     movf	0, 0, 0             	MOVF	r0x00, W
0020ac   0101     movlb	0x1                	BANKSEL	(_codeusecnt + 4)
0020ae   6f0c     movwf	0xc, 0x1           	MOVWF	(_codeusecnt + 4), B
0020b0   5001     movf	0x1, 0, 0           	MOVF	r0x01, W
                                           ; removed redundant BANKSEL
0020b2   6f0d     movwf	0xd, 0x1           	MOVWF	(_codeusecnt + 5), B
0020b4   5002     movf	0x2, 0, 0           	MOVF	r0x02, W
                                           ; removed redundant BANKSEL
0020b6   6f0e     movwf	0xe, 0x1           	MOVWF	(_codeusecnt + 6), B
0020b8   5003     movf	0x3, 0, 0           	MOVF	r0x03, W
                                           ; removed redundant BANKSEL
0020ba   6f0f     movwf	0xf, 0x1           	MOVWF	(_codeusecnt + 7), B
0020bc   d016     bra	0x20ea               	BRA	_00121_DS_
                                           _00120_DS_:
0020be   c10c     movff	0x10c, 0           	MOVFF	(_codeusecnt + 4), r0x00
0020c0   f000
0020c2   c10d     movff	0x10d, 0x1         	MOVFF	(_codeusecnt + 5), r0x01
0020c4   f001
0020c6   c10e     movff	0x10e, 0x2         	MOVFF	(_codeusecnt + 6), r0x02
0020c8   f002
0020ca   c10f     movff	0x10f, 0x3         	MOVFF	(_codeusecnt + 7), r0x03
0020cc   f003
0020ce   0eff     movlw	0xff               	MOVLW	0xff
0020d0   2600     addwf	0, 0x1, 0          	ADDWF	r0x00, F
0020d2   2201     addwfc	0x1, 0x1, 0       	ADDWFC	r0x01, F
0020d4   2202     addwfc	0x2, 0x1, 0       	ADDWFC	r0x02, F
0020d6   2203     addwfc	0x3, 0x1, 0       	ADDWFC	r0x03, F
0020d8   5000     movf	0, 0, 0             	MOVF	r0x00, W
0020da   0101     movlb	0x1                	BANKSEL	(_codeusecnt + 4)
0020dc   6f0c     movwf	0xc, 0x1           	MOVWF	(_codeusecnt + 4), B
0020de   5001     movf	0x1, 0, 0           	MOVF	r0x01, W
                                           ; removed redundant BANKSEL
0020e0   6f0d     movwf	0xd, 0x1           	MOVWF	(_codeusecnt + 5), B
0020e2   5002     movf	0x2, 0, 0           	MOVF	r0x02, W
                                           ; removed redundant BANKSEL
0020e4   6f0e     movwf	0xe, 0x1           	MOVWF	(_codeusecnt + 6), B
0020e6   5003     movf	0x3, 0, 0           	MOVF	r0x03, W
                                           ; removed redundant BANKSEL
0020e8   6f0f     movwf	0xf, 0x1           	MOVWF	(_codeusecnt + 7), B
                                           _00121_DS_:
                                           ;	.line	96; main.c	INTCON3bits.INT1IF = 0;
0020ea   90f0     bcf	0xf0, 0, 0           	BCF	_INTCON3bits, 0
                                           _00123_DS_:
                                           ;	.line	98; main.c	if(INTCONbits.INT0IF)
0020ec   a2f2     btfss	0xf2, 0x1, 0       	BTFSS	_INTCONbits, 1
0020ee   d032     bra	0x2154               	BRA	_00129_DS_
                                           ;	.line	100; main.c	if(PIN_SSCOD0) codeusecnt[0]++; else codeusecnt[0]--;
0020f0   a481     btfss	0x81, 0x2, 0       	BTFSS	_PORTBbits, 2
0020f2   d019     bra	0x2126               	BRA	_00125_DS_
0020f4   c108     movff	0x108, 0           	MOVFF	_codeusecnt, r0x00
0020f6   f000
0020f8   c109     movff	0x109, 0x1         	MOVFF	(_codeusecnt + 1), r0x01
0020fa   f001
0020fc   c10a     movff	0x10a, 0x2         	MOVFF	(_codeusecnt + 2), r0x02
0020fe   f002
002100   c10b     movff	0x10b, 0x3         	MOVFF	(_codeusecnt + 3), r0x03
002102   f003
002104   2a00     incf	0, 0x1, 0           	INCF	r0x00, F
002106   b0d8     btfsc	0xd8, 0, 0         	BTFSC	STATUS, 0
002108   2a01     incf	0x1, 0x1, 0         	INCF	r0x01, F
00210a   b0d8     btfsc	0xd8, 0, 0         	BTFSC	STATUS, 0
00210c   2a02     incf	0x2, 0x1, 0         	INCF	r0x02, F
00210e   b0d8     btfsc	0xd8, 0, 0         	BTFSC	STATUS, 0
002110   2a03     incf	0x3, 0x1, 0         	INCF	r0x03, F
002112   5000     movf	0, 0, 0             	MOVF	r0x00, W
002114   0101     movlb	0x1                	BANKSEL	_codeusecnt
002116   6f08     movwf	0x8, 0x1           	MOVWF	_codeusecnt, B
002118   5001     movf	0x1, 0, 0           	MOVF	r0x01, W
                                           ; removed redundant BANKSEL
00211a   6f09     movwf	0x9, 0x1           	MOVWF	(_codeusecnt + 1), B
00211c   5002     movf	0x2, 0, 0           	MOVF	r0x02, W
                                           ; removed redundant BANKSEL
00211e   6f0a     movwf	0xa, 0x1           	MOVWF	(_codeusecnt + 2), B
002120   5003     movf	0x3, 0, 0           	MOVF	r0x03, W
                                           ; removed redundant BANKSEL
002122   6f0b     movwf	0xb, 0x1           	MOVWF	(_codeusecnt + 3), B
002124   d016     bra	0x2152               	BRA	_00126_DS_
                                           _00125_DS_:
002126   c108     movff	0x108, 0           	MOVFF	_codeusecnt, r0x00
002128   f000
00212a   c109     movff	0x109, 0x1         	MOVFF	(_codeusecnt + 1), r0x01
00212c   f001
00212e   c10a     movff	0x10a, 0x2         	MOVFF	(_codeusecnt + 2), r0x02
002130   f002
002132   c10b     movff	0x10b, 0x3         	MOVFF	(_codeusecnt + 3), r0x03
002134   f003
002136   0eff     movlw	0xff               	MOVLW	0xff
002138   2600     addwf	0, 0x1, 0          	ADDWF	r0x00, F
00213a   2201     addwfc	0x1, 0x1, 0       	ADDWFC	r0x01, F
00213c   2202     addwfc	0x2, 0x1, 0       	ADDWFC	r0x02, F
00213e   2203     addwfc	0x3, 0x1, 0       	ADDWFC	r0x03, F
002140   5000     movf	0, 0, 0             	MOVF	r0x00, W
002142   0101     movlb	0x1                	BANKSEL	_codeusecnt
002144   6f08     movwf	0x8, 0x1           	MOVWF	_codeusecnt, B
002146   5001     movf	0x1, 0, 0           	MOVF	r0x01, W
                                           ; removed redundant BANKSEL
002148   6f09     movwf	0x9, 0x1           	MOVWF	(_codeusecnt + 1), B
00214a   5002     movf	0x2, 0, 0           	MOVF	r0x02, W
                                           ; removed redundant BANKSEL
00214c   6f0a     movwf	0xa, 0x1           	MOVWF	(_codeusecnt + 2), B
00214e   5003     movf	0x3, 0, 0           	MOVF	r0x03, W
                                           ; removed redundant BANKSEL
002150   6f0b     movwf	0xb, 0x1           	MOVWF	(_codeusecnt + 3), B
                                           _00126_DS_:
                                           ;	.line	101; main.c	INTCONbits.INT0IF = 0;
002152   92f2     bcf	0xf2, 0x1, 0         	BCF	_INTCONbits, 1
                                           _00129_DS_:
002154   cfe4     movff	0xfe4, 0x3         	MOVFF	PREINC1, r0x03
002156   f003
002158   cfe4     movff	0xfe4, 0x2         	MOVFF	PREINC1, r0x02
00215a   f002
00215c   cfe4     movff	0xfe4, 0x1         	MOVFF	PREINC1, r0x01
00215e   f001
002160   cfe4     movff	0xfe4, 0           	MOVFF	PREINC1, r0x00
002162   f000
002164   cfe4     movff	0xfe4, 0xffb       	MOVFF	PREINC1, PCLATU
002166   fffb
002168   cfe4     movff	0xfe4, 0xffa       	MOVFF	PREINC1, PCLATH
00216a   fffa
00216c   cfe4     movff	0xfe4, 0xfea       	MOVFF	PREINC1, FSR0H
00216e   ffea
002170   cfe4     movff	0xfe4, 0xfe9       	MOVFF	PREINC1, FSR0L
002172   ffe9
002174   cfe4     movff	0xfe4, 0xff4       	MOVFF	PREINC1, PRODH
002176   fff4
002178   cfe4     movff	0xfe4, 0xff3       	MOVFF	PREINC1, PRODL
00217a   fff3
00217c   cfe4     movff	0xfe4, 0xfe0       	MOVFF	PREINC1, BSR
00217e   ffe0
002180   cfe4     movff	0xfe4, 0xfd8       	MOVFF	PREINC1, STATUS
002182   ffd8
002184   cfe4     movff	0xfe4, 0xfe8       	MOVFF	PREINC1, WREG
002186   ffe8
002188   0010     retfie	0                 	RETFIE	
                                           
                                           ; ; Starting pCode block
                                           S_main__low_priority_isr	code	0X004000
                                           _low_priority_isr:
                                           ;	.line	106; main.c	void low_priority_isr(void) interrupt
004000   cfe8     movff	0xfe8, 0xfe5       	MOVFF	WREG, POSTDEC1
004002   ffe5
004004   cfd8     movff	0xfd8, 0xfe5       	MOVFF	STATUS, POSTDEC1
004006   ffe5
004008   cfe0     movff	0xfe0, 0xfe5       	MOVFF	BSR, POSTDEC1
00400a   ffe5
00400c   cff3     movff	0xff3, 0xfe5       	MOVFF	PRODL, POSTDEC1
00400e   ffe5
004010   cff4     movff	0xff4, 0xfe5       	MOVFF	PRODH, POSTDEC1
004012   ffe5
004014   cfe9     movff	0xfe9, 0xfe5       	MOVFF	FSR0L, POSTDEC1
004016   ffe5
004018   cfea     movff	0xfea, 0xfe5       	MOVFF	FSR0H, POSTDEC1
00401a   ffe5
00401c   cffa     movff	0xffa, 0xfe5       	MOVFF	PCLATH, POSTDEC1
00401e   ffe5
004020   cffb     movff	0xffb, 0xfe5       	MOVFF	PCLATU, POSTDEC1
004022   ffe5
                                           ;	.line	108; main.c	}
004024   cfe4     movff	0xfe4, 0xffb       	MOVFF	PREINC1, PCLATU
004026   fffb
004028   cfe4     movff	0xfe4, 0xffa       	MOVFF	PREINC1, PCLATH
00402a   fffa
00402c   cfe4     movff	0xfe4, 0xfea       	MOVFF	PREINC1, FSR0H
00402e   ffea
004030   cfe4     movff	0xfe4, 0xfe9       	MOVFF	PREINC1, FSR0L
004032   ffe9
004034   cfe4     movff	0xfe4, 0xff4       	MOVFF	PREINC1, PRODH
004036   fff4
004038   cfe4     movff	0xfe4, 0xff3       	MOVFF	PREINC1, PRODL
00403a   fff3
00403c   cfe4     movff	0xfe4, 0xfe0       	MOVFF	PREINC1, BSR
00403e   ffe0
004040   cfe4     movff	0xfe4, 0xfd8       	MOVFF	PREINC1, STATUS
004042   ffd8
004044   cfe4     movff	0xfe4, 0xfe8       	MOVFF	PREINC1, WREG
004046   ffe8
004048   0010     retfie	0                 	RETFIE	
                                           
                                           ; I code from now on!
                                           ; ; Starting pCode block
                                           S_main__application_main	code
                                           _application_main:
                                           ;	.line	49; main.c	TRISA = 0xEF;
00261c   0eef     movlw	0xef               	MOVLW	0xef
00261e   6e92     movwf	0x92, 0            	MOVWF	_TRISA
                                           ;	.line	50; main.c	PORTA = 0x10;
002620   0e10     movlw	0x10               	MOVLW	0x10
002622   6e80     movwf	0x80, 0            	MOVWF	_PORTA
                                           ;	.line	53; main.c	TMR0H = 0;
002624   6ad7     clrf	0xd7, 0             	CLRF	_TMR0H
                                           ;	.line	54; main.c	TMR0L = 0;
002626   6ad6     clrf	0xd6, 0             	CLRF	_TMR0L
                                           ;	.line	57; main.c	T0CON = 0x86; // TMR0ON, 16bits, CLKO, PSA on, 1:256
002628   0e86     movlw	0x86               	MOVLW	0x86
00262a   6ed5     movwf	0xd5, 0            	MOVWF	_T0CON
                                           ;	.line	59; main.c	init_pwm();
00262c   ec3a     call	0x2674, 0           	CALL	_init_pwm
00262e   f013
                                           ;	.line	60; main.c	init_codeuses();
002630   ec2c     call	0x2658, 0           	CALL	_init_codeuses
002632   f013
                                           ;	.line	64; main.c	PIE2bits.USBIE = 0; // Interrupt USB off : on ne touche pas a la gestion de l'USB !!
002634   9aa0     bcf	0xa0, 0x5, 0         	BCF	_PIE2bits, 5
                                           ;	.line	66; main.c	INTCONbits.TMR0IE = 1; // Interrupt Timer 0
002636   8af2     bsf	0xf2, 0x5, 0         	BSF	_INTCONbits, 5
                                           ;	.line	67; main.c	INTCONbits.PEIE = 1; // Interrupts peripheriques (usb, timer 1...)
002638   8cf2     bsf	0xf2, 0x6, 0         	BSF	_INTCONbits, 6
                                           ;	.line	68; main.c	INTCONbits.GIE = 1; // Interrupts global
00263a   8ef2     bsf	0xf2, 0x7, 0         	BSF	_INTCONbits, 7
                                           ; #	MOVLW	0x80
                                           ; #	MOVWF	_totol, B
                                           ; #	MOVLW	0x80
                                           ; ;     peep 5 - Removed redundant move
                                           ;	.line	70; main.c	totol=0x80;
00263c   0e80     movlw	0x80               	MOVLW	0x80
00263e   0101     movlb	0x1                	BANKSEL	_totol
                                           ;	.line	71; main.c	totoh=0x80;
002640   6f15     movwf	0x15, 0x1          	MOVWF	_totol, B
002642   0101     movlb	0x1                	BANKSEL	_totoh
002644   6f16     movwf	0x16, 0x1          	MOVWF	_totoh, B
                                           _00109_DS_:
                                           ;	.line	73; main.c	while(usb_active_cfg > 2)
002646   0e03     movlw	0x3                	MOVLW	0x03
002648   5c5e     subwf	0x5e, 0, 0         	SUBWF	_usb_active_cfg, W
00264a   e305     bnc	0x2656               	BNC	_00112_DS_
                                           ;	.line	75; main.c	usb_sleep();
00264c   ec13     call	0x26, 0             	CALL	_usb_sleep
00264e   f000
                                           ;	.line	76; main.c	dispatch_usb_event();
002650   ec0f     call	0x1e, 0             	CALL	_dispatch_usb_event
002652   f000
002654   d7f8     bra	0x2646               	BRA	_00109_DS_
                                           _00112_DS_:
002656   0012     return	0                 	RETURN	
                                           
                                           ; ; Starting pCode block
                                           S_main__init_pwm	code
                                           _init_pwm:
                                           ;	.line	38; main.c	PR2 = 0xFF; //periode Timer2 = 256
002674   68cb     setf	0xcb, 0             	SETF	_PR2
                                           ; #	MOVLW	0x80
                                           ; #	MOVWF	_CCPR1L
                                           ; #	MOVLW	0x80
                                           ; ;     peep 5 - Removed redundant move
                                           ;	.line	39; main.c	CCPR1L = 0x80; // Rapport cyclique 1 = 1/2 (pour les bits de poids faibles, voir CCP1CON bits 4 et 5)
002676   0e80     movlw	0x80               	MOVLW	0x80
                                           ;	.line	40; main.c	CCPR2L = 0x80; // Rapport cyclique 2 = 1/2
002678   6ebe     movwf	0xbe, 0            	MOVWF	_CCPR1L
00267a   6ebb     movwf	0xbb, 0            	MOVWF	_CCPR2L
                                           ;	.line	41; main.c	TRISC &= 0xF9; // 11111001 : CCP1, CCP2 = sorties
00267c   0ef9     movlw	0xf9               	MOVLW	0xf9
00267e   1694     andwf	0x94, 0x1, 0       	ANDWF	_TRISC, F
                                           ;	.line	42; main.c	T2CON = 0x7C; // timer2 conf = 0 1111 1 00 : nU, postscaler 1:16, on, prescaler 1:1
002680   0e7c     movlw	0x7c               	MOVLW	0x7c
002682   6eca     movwf	0xca, 0            	MOVWF	_T2CON
                                           ; #	MOVLW	0x0c
                                           ; #	MOVWF	_CCP1CON
                                           ; #	MOVLW	0x0c
                                           ; ;     peep 5 - Removed redundant move
                                           ;	.line	43; main.c	CCP1CON = 0x0C; // CCP1 conf = 00 00 1100 : nU, bits poids faibles, PWM mode
002684   0e0c     movlw	0xc                	MOVLW	0x0c
                                           ;	.line	44; main.c	CCP2CON = 0x0C; // CCP2 conf...
002686   6ebd     movwf	0xbd, 0            	MOVWF	_CCP1CON
002688   6eba     movwf	0xba, 0            	MOVWF	_CCP2CON
00268a   0012     return	0                 	RETURN	
                                           
                                           
                                           
                                           ; Statistics:
                                           ; code size:	  520 (0x0208) bytes ( 0.40%)
                                           ;           	  260 (0x0104) words
                                           ; udata size:	    2 (0x0002) bytes ( 0.11%)
                                           ; access size:	    4 (0x0004) bytes
                                           
                                           
                                           	end
                                           ;--------------------------------------------------------
                                           ; File Created by SDCC : FreeWare ANSI-C Compiler
                                           ; Version 2.6.1 #4482 (Mar 15 2009)
                                           ; This file generated Mon May 18 09:33:38 2009
                                           ;--------------------------------------------------------
                                           ; PIC16 port for the Microchip 16-bit core micros
                                           ;--------------------------------------------------------
                                           	list	p=18f4550
                                           
                                           	radix dec
                                           
                                           ;--------------------------------------------------------
                                           ; public variables in this module
                                           ;--------------------------------------------------------
                                           	global _null_function
                                           	global _device_descriptor
                                           	global _default_cfg
                                           	global _flash_cfg
                                           	global _application_cfg
                                           	global _configuration_descriptor
                                           	global _str0
                                           	global _str1
                                           	global _str2
                                           	global _str3
                                           	global _str4
                                           	global _str5
                                           	global _string_descriptor
                                           	global _ep_init
                                           	global _ep_in
                                           	global _ep_out
                                           	global _ep_setup
                                           
                                           ;--------------------------------------------------------
                                           ; extern variables in this module
                                           ;--------------------------------------------------------
                                           	extern _ep2_num_bytes_to_send
                                           	extern _ep2_source_data
                                           	extern _usb_device_state
                                           	extern _usb_active_cfg
                                           	extern _usb_active_alt_setting
                                           	extern _ep0_init
                                           	extern _ep1_init
                                           	extern _ep2_init
                                           	extern _my_ep1_init
                                           	extern _my_ep2_init
                                           	extern _ep0_in
                                           	extern _ep2_in
                                           	extern _my_ep2_in
                                           	extern _ep1_out
                                           	extern _my_ep1_out
                                           	extern _ep0_setup
                                           
                                           ;--------------------------------------------------------
                                           ; global & static initialisations
                                           ;--------------------------------------------------------
                                           ; I code from now on!
                                           ; ; Starting pCode block
                                           S_usb_descriptors__null_function	code
                                           _null_function:
00201a   0012     return	0                 	return
                                           	
                                           ; ; Starting pCode block for Ival
                                           	code
                                           _device_descriptor:
00218a   0112     movlb	0x12               	DB	0x12, 0x01, 0x00, 0x02, 0xff, 0x00, 0xff, 0x08, 0xa5, 0xa5, 0x03, 0x00
00218c   0200     mulwf	0, 0               
00218e   00ff     reset                    
002190   08ff     sublw	0xff               
002192   a5a5     btfss	0xa5, 0x2, 0x1     
002194   0003     sleep                    
002196   0100     movlb	0                  	DB	0x00, 0x01, 0x01, 0x02, 0x03, 0x03
002198   0201     mulwf	0x1, 0             
00219a   0303     mulwf	0x3, 0x1           
                                           ; ; Starting pCode block for Ival
                                           _default_cfg:
00219c   0209     mulwf	0x9, 0             	DB	0x09, 0x02, 0x12, 0x00, 0x01, 0x01, 0x04, 0xc0, 0x00, 0x09, 0x04, 0x00
00219e   0012     return	0                 
0021a0   0101     movlb	0x1                
0021a2   c004     movff	0x4, 0x900         
0021a4   0900
0021a6   0004     clrwdt                   
0021a8   0000     nop                      	DB	0x00, 0x00, 0xff, 0xff, 0xff, 0x04
0021aa   ffff     dw	0xffff  ;unknown opcode 
0021ac   04ff     decf	0xff, 0, 0          
                                           ; ; Starting pCode block for Ival
                                           _flash_cfg:
0021ae   0209     mulwf	0x9, 0             	DB	0x09, 0x02, 0x20, 0x00, 0x01, 0x02, 0x05, 0xc0, 0x00, 0x09, 0x04, 0x00
0021b0   0020     dw	0x20  ;unknown opcode 
0021b2   0201     mulwf	0x1, 0             
0021b4   c005     movff	0x5, 0x900         
0021b6   0900
0021b8   0004     clrwdt                   
0021ba   0200     mulwf	0, 0               	DB	0x00, 0x02, 0xff, 0xff, 0xff, 0x05, 0x07, 0x05, 0x01, 0x02, 0x40, 0x00
0021bc   ffff     dw	0xffff  ;unknown opcode 
0021be   05ff     decf	0xff, 0, 0x1        
0021c0   0507     decf	0x7, 0, 0x1         
0021c2   0201     mulwf	0x1, 0             
0021c4   0040     dw	0x40  ;unknown opcode 
0021c6   0700     decf	0, 0x1, 0x1         	DB	0x00, 0x07, 0x05, 0x82, 0x02, 0x40, 0x00, 0x00
0021c8   8205     bsf	0x5, 0x1, 0          
0021ca   4002     rrncf	0x2, 0, 0          
0021cc   0000     nop                      
                                           ; ; Starting pCode block for Ival
                                           _application_cfg:
0021ce   0209     mulwf	0x9, 0             	DB	0x09, 0x02, 0x20, 0x00, 0x01, 0x03, 0x04, 0xc0, 0x00, 0x09, 0x04, 0x00
0021d0   0020     dw	0x20  ;unknown opcode 
0021d2   0301     mulwf	0x1, 0x1           
0021d4   c004     movff	0x4, 0x900         
0021d6   0900
0021d8   0004     clrwdt                   
0021da   0200     mulwf	0, 0               	DB	0x00, 0x02, 0xff, 0xff, 0xff, 0x04, 0x07, 0x05, 0x01, 0x02, 0x40, 0x00
0021dc   ffff     dw	0xffff  ;unknown opcode 
0021de   04ff     decf	0xff, 0, 0          
0021e0   0507     decf	0x7, 0, 0x1         
0021e2   0201     mulwf	0x1, 0             
0021e4   0040     dw	0x40  ;unknown opcode 
0021e6   0700     decf	0, 0x1, 0x1         	DB	0x00, 0x07, 0x05, 0x82, 0x02, 0x40, 0x00, 0x00
0021e8   8205     bsf	0x5, 0x1, 0          
0021ea   4002     rrncf	0x2, 0, 0          
0021ec   0000     nop                      
                                           ; ; Starting pCode block for Ival
                                           _configuration_descriptor:
0021ee   219c     addwfc	0x9c, 0, 0x1      	DB	LOW(_default_cfg), HIGH(_default_cfg), UPPER(_default_cfg), LOW(_flash_cfg), HIGH(_flash_cfg), UPPER(_flash_cfg), LOW(_application_cfg), HIGH(_application_cfg), UPPER(_application_cfg)
0021f0   ae00     btfss	0, 0x7, 0          
0021f2   0021     dw	0x21  ;unknown opcode 
0021f4   21ce     addwfc	0xce, 0, 0x1      
0021f6   0000     nop                      
                                           ; ; Starting pCode block for Ival
                                           _str0:
0021f8   0304     mulwf	0x4, 0x1           	DB	0x04, 0x03, 0x09, 0x04
0021fa   0409     decf	0x9, 0, 0           
                                           ; ; Starting pCode block for Ival
                                           _str1:
0021fc   031c     mulwf	0x1c, 0x1          	DB	0x1c, 0x03, 0x56, 0x00, 0x61, 0x00, 0x73, 0x00, 0x63, 0x00, 0x6f, 0x00
0021fe   0056     dw	0x56  ;unknown opcode 
002200   0061     dw	0x61  ;unknown opcode 
002202   0073     dw	0x73  ;unknown opcode 
002204   0063     dw	0x63  ;unknown opcode 
002206   006f     dw	0x6f  ;unknown opcode 
002208   0020     dw	0x20  ;unknown opcode 	DB	0x20, 0x00, 0x50, 0x00, 0x72, 0x00, 0x6f, 0x00, 0x6a, 0x00, 0x65, 0x00
00220a   0050     dw	0x50  ;unknown opcode 
00220c   0072     dw	0x72  ;unknown opcode 
00220e   006f     dw	0x6f  ;unknown opcode 
002210   006a     dw	0x6a  ;unknown opcode 
002212   0065     dw	0x65  ;unknown opcode 
002214   0063     dw	0x63  ;unknown opcode 	DB	0x63, 0x00, 0x74, 0x00
002216   0074     dw	0x74  ;unknown opcode 
                                           ; ; Starting pCode block for Ival
                                           _str2:
002218   031c     mulwf	0x1c, 0x1          	DB	0x1c, 0x03, 0x54, 0x00, 0x6f, 0x00, 0x67, 0x00, 0x67, 0x00, 0x6c, 0x00
00221a   0054     dw	0x54  ;unknown opcode 
00221c   006f     dw	0x6f  ;unknown opcode 
00221e   0067     dw	0x67  ;unknown opcode 
002220   0067     dw	0x67  ;unknown opcode 
002222   006c     dw	0x6c  ;unknown opcode 
002224   0065     dw	0x65  ;unknown opcode 	DB	0x65, 0x00, 0x20, 0x00, 0x6d, 0x00, 0x6f, 0x00, 0x64, 0x00, 0x75, 0x00
002226   0020     dw	0x20  ;unknown opcode 
002228   006d     dw	0x6d  ;unknown opcode 
00222a   006f     dw	0x6f  ;unknown opcode 
00222c   0064     dw	0x64  ;unknown opcode 
00222e   0075     dw	0x75  ;unknown opcode 
002230   006c     dw	0x6c  ;unknown opcode 	DB	0x6c, 0x00, 0x65, 0x00
002232   0065     dw	0x65  ;unknown opcode 
                                           ; ; Starting pCode block for Ival
                                           _str3:
002234   0304     mulwf	0x4, 0x1           	DB	0x04, 0x03, 0x31, 0x00
002236   0031     dw	0x31  ;unknown opcode 
                                           ; ; Starting pCode block for Ival
                                           _str4:
002238   0310     mulwf	0x10, 0x1          	DB	0x10, 0x03, 0x44, 0x00, 0x65, 0x00, 0x66, 0x00, 0x61, 0x00, 0x75, 0x00
00223a   0044     dw	0x44  ;unknown opcode 
00223c   0065     dw	0x65  ;unknown opcode 
00223e   0066     dw	0x66  ;unknown opcode 
002240   0061     dw	0x61  ;unknown opcode 
002242   0075     dw	0x75  ;unknown opcode 
002244   006c     dw	0x6c  ;unknown opcode 	DB	0x6c, 0x00, 0x74, 0x00
002246   0074     dw	0x74  ;unknown opcode 
                                           ; ; Starting pCode block for Ival
                                           _str5:
002248   030c     mulwf	0xc, 0x1           	DB	0x0c, 0x03, 0x46, 0x00, 0x6c, 0x00, 0x61, 0x00, 0x73, 0x00, 0x68, 0x00
00224a   0046     dw	0x46  ;unknown opcode 
00224c   006c     dw	0x6c  ;unknown opcode 
00224e   0061     dw	0x61  ;unknown opcode 
002250   0073     dw	0x73  ;unknown opcode 
002252   0068     dw	0x68  ;unknown opcode 
                                           ; ; Starting pCode block for Ival
                                           _string_descriptor:
002254   21f8     addwfc	0xf8, 0, 0x1      	DB	LOW(_str0), HIGH(_str0), UPPER(_str0), LOW(_str1), HIGH(_str1), UPPER(_str1), LOW(_str2), HIGH(_str2), UPPER(_str2), LOW(_str3), HIGH(_str3), UPPER(_str3)
002256   fc00     dw	0xfc00  ;unknown opcode 
002258   0021     dw	0x21  ;unknown opcode 
00225a   2218     addwfc	0x18, 0x1, 0      
00225c   3400     rlcf	0, 0, 0             
00225e   0022     dw	0x22  ;unknown opcode 
002260   2238     addwfc	0x38, 0x1, 0      	DB	LOW(_str4), HIGH(_str4), UPPER(_str4), LOW(_str5), HIGH(_str5), UPPER(_str5)
002262   4800     infsnz	0, 0, 0           
002264   0022     dw	0x22  ;unknown opcode 
                                           ; ; Starting pCode block for Ival
                                           _ep_init_cfg0:
002266   002e     dw	0x2e  ;unknown opcode 	DB	LOW(_ep0_init), HIGH(_ep0_init), UPPER(_ep0_init), LOW(_null_function), HIGH(_null_function), UPPER(_null_function), LOW(_null_function), HIGH(_null_function), UPPER(_null_function), LOW(_null_function), HIGH(_null_function), UPPER(_null_function)
002268   1a00     xorwf	0, 0x1, 0          
00226a   0020     dw	0x20  ;unknown opcode 
00226c   201a     addwfc	0x1a, 0, 0        
00226e   1a00     xorwf	0, 0x1, 0          
002270   0020     dw	0x20  ;unknown opcode 
002272   201a     addwfc	0x1a, 0, 0        	DB	LOW(_null_function), HIGH(_null_function), UPPER(_null_function), LOW(_null_function), HIGH(_null_function), UPPER(_null_function), LOW(_null_function), HIGH(_null_function), UPPER(_null_function), LOW(_null_function), HIGH(_null_function), UPPER(_null_function)
002274   1a00     xorwf	0, 0x1, 0          
002276   0020     dw	0x20  ;unknown opcode 
002278   201a     addwfc	0x1a, 0, 0        
00227a   1a00     xorwf	0, 0x1, 0          
00227c   0020     dw	0x20  ;unknown opcode 
00227e   201a     addwfc	0x1a, 0, 0        	DB	LOW(_null_function), HIGH(_null_function), UPPER(_null_function), LOW(_null_function), HIGH(_null_function), UPPER(_null_function), LOW(_null_function), HIGH(_null_function), UPPER(_null_function), LOW(_null_function), HIGH(_null_function), UPPER(_null_function)
002280   1a00     xorwf	0, 0x1, 0          
002282   0020     dw	0x20  ;unknown opcode 
002284   201a     addwfc	0x1a, 0, 0        
002286   1a00     xorwf	0, 0x1, 0          
002288   0020     dw	0x20  ;unknown opcode 
00228a   201a     addwfc	0x1a, 0, 0        	DB	LOW(_null_function), HIGH(_null_function), UPPER(_null_function), LOW(_null_function), HIGH(_null_function), UPPER(_null_function), LOW(_null_function), HIGH(_null_function), UPPER(_null_function), LOW(_null_function), HIGH(_null_function), UPPER(_null_function)
00228c   1a00     xorwf	0, 0x1, 0          
00228e   0020     dw	0x20  ;unknown opcode 
002290   201a     addwfc	0x1a, 0, 0        
002292   1a00     xorwf	0, 0x1, 0          
002294   0020     dw	0x20  ;unknown opcode 
                                           ; ; Starting pCode block for Ival
                                           _ep_init_cfg1:
002296   002e     dw	0x2e  ;unknown opcode 	DB	LOW(_ep0_init), HIGH(_ep0_init), UPPER(_ep0_init), LOW(_ep1_init), HIGH(_ep1_init), UPPER(_ep1_init), LOW(_ep2_init), HIGH(_ep2_init), UPPER(_ep2_init), LOW(_null_function), HIGH(_null_function), UPPER(_null_function)
002298   3a00     swapf	0, 0x1, 0          
00229a   0000     nop                      
00229c   0042     dw	0x42  ;unknown opcode 
00229e   1a00     xorwf	0, 0x1, 0          
0022a0   0020     dw	0x20  ;unknown opcode 
0022a2   201a     addwfc	0x1a, 0, 0        	DB	LOW(_null_function), HIGH(_null_function), UPPER(_null_function), LOW(_null_function), HIGH(_null_function), UPPER(_null_function), LOW(_null_function), HIGH(_null_function), UPPER(_null_function), LOW(_null_function), HIGH(_null_function), UPPER(_null_function)
0022a4   1a00     xorwf	0, 0x1, 0          
0022a6   0020     dw	0x20  ;unknown opcode 
0022a8   201a     addwfc	0x1a, 0, 0        
0022aa   1a00     xorwf	0, 0x1, 0          
0022ac   0020     dw	0x20  ;unknown opcode 
0022ae   201a     addwfc	0x1a, 0, 0        	DB	LOW(_null_function), HIGH(_null_function), UPPER(_null_function), LOW(_null_function), HIGH(_null_function), UPPER(_null_function), LOW(_null_function), HIGH(_null_function), UPPER(_null_function), LOW(_null_function), HIGH(_null_function), UPPER(_null_function)
0022b0   1a00     xorwf	0, 0x1, 0          
0022b2   0020     dw	0x20  ;unknown opcode 
0022b4   201a     addwfc	0x1a, 0, 0        
0022b6   1a00     xorwf	0, 0x1, 0          
0022b8   0020     dw	0x20  ;unknown opcode 
0022ba   201a     addwfc	0x1a, 0, 0        	DB	LOW(_null_function), HIGH(_null_function), UPPER(_null_function), LOW(_null_function), HIGH(_null_function), UPPER(_null_function), LOW(_null_function), HIGH(_null_function), UPPER(_null_function), LOW(_null_function), HIGH(_null_function), UPPER(_null_function)
0022bc   1a00     xorwf	0, 0x1, 0          
0022be   0020     dw	0x20  ;unknown opcode 
0022c0   201a     addwfc	0x1a, 0, 0        
0022c2   1a00     xorwf	0, 0x1, 0          
0022c4   0020     dw	0x20  ;unknown opcode 
                                           ; ; Starting pCode block for Ival
                                           _ep_init_cfg2:
0022c6   002e     dw	0x2e  ;unknown opcode 	DB	LOW(_ep0_init), HIGH(_ep0_init), UPPER(_ep0_init), LOW(_my_ep1_init), HIGH(_my_ep1_init), UPPER(_my_ep1_init), LOW(_my_ep2_init), HIGH(_my_ep2_init), UPPER(_my_ep2_init), LOW(_null_function), HIGH(_null_function), UPPER(_null_function)
0022c8   8c00     bsf	0, 0x6, 0            
0022ca   0026     dw	0x26  ;unknown opcode 
0022cc   26a2     addwf	0xa2, 0x1, 0       
0022ce   1a00     xorwf	0, 0x1, 0          
0022d0   0020     dw	0x20  ;unknown opcode 
0022d2   201a     addwfc	0x1a, 0, 0        	DB	LOW(_null_function), HIGH(_null_function), UPPER(_null_function), LOW(_null_function), HIGH(_null_function), UPPER(_null_function), LOW(_null_function), HIGH(_null_function), UPPER(_null_function), LOW(_null_function), HIGH(_null_function), UPPER(_null_function)
0022d4   1a00     xorwf	0, 0x1, 0          
0022d6   0020     dw	0x20  ;unknown opcode 
0022d8   201a     addwfc	0x1a, 0, 0        
0022da   1a00     xorwf	0, 0x1, 0          
0022dc   0020     dw	0x20  ;unknown opcode 
0022de   201a     addwfc	0x1a, 0, 0        	DB	LOW(_null_function), HIGH(_null_function), UPPER(_null_function), LOW(_null_function), HIGH(_null_function), UPPER(_null_function), LOW(_null_function), HIGH(_null_function), UPPER(_null_function), LOW(_null_function), HIGH(_null_function), UPPER(_null_function)
0022e0   1a00     xorwf	0, 0x1, 0          
0022e2   0020     dw	0x20  ;unknown opcode 
0022e4   201a     addwfc	0x1a, 0, 0        
0022e6   1a00     xorwf	0, 0x1, 0          
0022e8   0020     dw	0x20  ;unknown opcode 
0022ea   201a     addwfc	0x1a, 0, 0        	DB	LOW(_null_function), HIGH(_null_function), UPPER(_null_function), LOW(_null_function), HIGH(_null_function), UPPER(_null_function), LOW(_null_function), HIGH(_null_function), UPPER(_null_function), LOW(_null_function), HIGH(_null_function), UPPER(_null_function)
0022ec   1a00     xorwf	0, 0x1, 0          
0022ee   0020     dw	0x20  ;unknown opcode 
0022f0   201a     addwfc	0x1a, 0, 0        
0022f2   1a00     xorwf	0, 0x1, 0          
0022f4   0020     dw	0x20  ;unknown opcode 
                                           ; ; Starting pCode block for Ival
                                           _ep_init:
0022f6   2266     addwfc	0x66, 0x1, 0      	DB	LOW(_ep_init_cfg0), HIGH(_ep_init_cfg0), UPPER(_ep_init_cfg0), LOW(_ep_init_cfg0), HIGH(_ep_init_cfg0), UPPER(_ep_init_cfg0), LOW(_ep_init_cfg1), HIGH(_ep_init_cfg1), UPPER(_ep_init_cfg1), LOW(_ep_init_cfg2), HIGH(_ep_init_cfg2), UPPER(_ep_init_cfg2)
0022f8   6600     tstfsz	0, 0              
0022fa   0022     dw	0x22  ;unknown opcode 
0022fc   2296     addwfc	0x96, 0x1, 0      
0022fe   c600     movff	0x600, 0x22        
002300   0022
                                           ; ; Starting pCode block for Ival
                                           _ep_in_cfg0:
002302   0032     dw	0x32  ;unknown opcode 	DB	LOW(_ep0_in), HIGH(_ep0_in), UPPER(_ep0_in), LOW(_null_function), HIGH(_null_function), UPPER(_null_function), LOW(_null_function), HIGH(_null_function), UPPER(_null_function), LOW(_null_function), HIGH(_null_function), UPPER(_null_function)
002304   1a00     xorwf	0, 0x1, 0          
002306   0020     dw	0x20  ;unknown opcode 
002308   201a     addwfc	0x1a, 0, 0        
00230a   1a00     xorwf	0, 0x1, 0          
00230c   0020     dw	0x20  ;unknown opcode 
00230e   201a     addwfc	0x1a, 0, 0        	DB	LOW(_null_function), HIGH(_null_function), UPPER(_null_function), LOW(_null_function), HIGH(_null_function), UPPER(_null_function), LOW(_null_function), HIGH(_null_function), UPPER(_null_function), LOW(_null_function), HIGH(_null_function), UPPER(_null_function)
002310   1a00     xorwf	0, 0x1, 0          
002312   0020     dw	0x20  ;unknown opcode 
002314   201a     addwfc	0x1a, 0, 0        
002316   1a00     xorwf	0, 0x1, 0          
002318   0020     dw	0x20  ;unknown opcode 
00231a   201a     addwfc	0x1a, 0, 0        	DB	LOW(_null_function), HIGH(_null_function), UPPER(_null_function), LOW(_null_function), HIGH(_null_function), UPPER(_null_function), LOW(_null_function), HIGH(_null_function), UPPER(_null_function), LOW(_null_function), HIGH(_null_function), UPPER(_null_function)
00231c   1a00     xorwf	0, 0x1, 0          
00231e   0020     dw	0x20  ;unknown opcode 
002320   201a     addwfc	0x1a, 0, 0        
002322   1a00     xorwf	0, 0x1, 0          
002324   0020     dw	0x20  ;unknown opcode 
002326   201a     addwfc	0x1a, 0, 0        	DB	LOW(_null_function), HIGH(_null_function), UPPER(_null_function), LOW(_null_function), HIGH(_null_function), UPPER(_null_function), LOW(_null_function), HIGH(_null_function), UPPER(_null_function), LOW(_null_function), HIGH(_null_function), UPPER(_null_function)
002328   1a00     xorwf	0, 0x1, 0          
00232a   0020     dw	0x20  ;unknown opcode 
00232c   201a     addwfc	0x1a, 0, 0        
00232e   1a00     xorwf	0, 0x1, 0          
002330   0020     dw	0x20  ;unknown opcode 
                                           ; ; Starting pCode block for Ival
                                           _ep_in_cfg1:
002332   0032     dw	0x32  ;unknown opcode 	DB	LOW(_ep0_in), HIGH(_ep0_in), UPPER(_ep0_in), LOW(_null_function), HIGH(_null_function), UPPER(_null_function), LOW(_ep2_in), HIGH(_ep2_in), UPPER(_ep2_in), LOW(_null_function), HIGH(_null_function), UPPER(_null_function)
002334   1a00     xorwf	0, 0x1, 0          
002336   0020     dw	0x20  ;unknown opcode 
002338   0046     dw	0x46  ;unknown opcode 
00233a   1a00     xorwf	0, 0x1, 0          
00233c   0020     dw	0x20  ;unknown opcode 
00233e   201a     addwfc	0x1a, 0, 0        	DB	LOW(_null_function), HIGH(_null_function), UPPER(_null_function), LOW(_null_function), HIGH(_null_function), UPPER(_null_function), LOW(_null_function), HIGH(_null_function), UPPER(_null_function), LOW(_null_function), HIGH(_null_function), UPPER(_null_function)
002340   1a00     xorwf	0, 0x1, 0          
002342   0020     dw	0x20  ;unknown opcode 
002344   201a     addwfc	0x1a, 0, 0        
002346   1a00     xorwf	0, 0x1, 0          
002348   0020     dw	0x20  ;unknown opcode 
00234a   201a     addwfc	0x1a, 0, 0        	DB	LOW(_null_function), HIGH(_null_function), UPPER(_null_function), LOW(_null_function), HIGH(_null_function), UPPER(_null_function), LOW(_null_function), HIGH(_null_function), UPPER(_null_function), LOW(_null_function), HIGH(_null_function), UPPER(_null_function)
00234c   1a00     xorwf	0, 0x1, 0          
00234e   0020     dw	0x20  ;unknown opcode 
002350   201a     addwfc	0x1a, 0, 0        
002352   1a00     xorwf	0, 0x1, 0          
002354   0020     dw	0x20  ;unknown opcode 
002356   201a     addwfc	0x1a, 0, 0        	DB	LOW(_null_function), HIGH(_null_function), UPPER(_null_function), LOW(_null_function), HIGH(_null_function), UPPER(_null_function), LOW(_null_function), HIGH(_null_function), UPPER(_null_function), LOW(_null_function), HIGH(_null_function), UPPER(_null_function)
002358   1a00     xorwf	0, 0x1, 0          
00235a   0020     dw	0x20  ;unknown opcode 
00235c   201a     addwfc	0x1a, 0, 0        
00235e   1a00     xorwf	0, 0x1, 0          
002360   0020     dw	0x20  ;unknown opcode 
                                           ; ; Starting pCode block for Ival
                                           _ep_in_cfg2:
002362   0032     dw	0x32  ;unknown opcode 	DB	LOW(_ep0_in), HIGH(_ep0_in), UPPER(_ep0_in), LOW(_null_function), HIGH(_null_function), UPPER(_null_function), LOW(_my_ep2_in), HIGH(_my_ep2_in), UPPER(_my_ep2_in), LOW(_null_function), HIGH(_null_function), UPPER(_null_function)
002364   1a00     xorwf	0, 0x1, 0          
002366   0020     dw	0x20  ;unknown opcode 
002368   2476     addwf	0x76, 0, 0         
00236a   1a00     xorwf	0, 0x1, 0          
00236c   0020     dw	0x20  ;unknown opcode 
00236e   201a     addwfc	0x1a, 0, 0        	DB	LOW(_null_function), HIGH(_null_function), UPPER(_null_function), LOW(_null_function), HIGH(_null_function), UPPER(_null_function), LOW(_null_function), HIGH(_null_function), UPPER(_null_function), LOW(_null_function), HIGH(_null_function), UPPER(_null_function)
002370   1a00     xorwf	0, 0x1, 0          
002372   0020     dw	0x20  ;unknown opcode 
002374   201a     addwfc	0x1a, 0, 0        
002376   1a00     xorwf	0, 0x1, 0          
002378   0020     dw	0x20  ;unknown opcode 
00237a   201a     addwfc	0x1a, 0, 0        	DB	LOW(_null_function), HIGH(_null_function), UPPER(_null_function), LOW(_null_function), HIGH(_null_function), UPPER(_null_function), LOW(_null_function), HIGH(_null_function), UPPER(_null_function), LOW(_null_function), HIGH(_null_function), UPPER(_null_function)
00237c   1a00     xorwf	0, 0x1, 0          
00237e   0020     dw	0x20  ;unknown opcode 
002380   201a     addwfc	0x1a, 0, 0        
002382   1a00     xorwf	0, 0x1, 0          
002384   0020     dw	0x20  ;unknown opcode 
002386   201a     addwfc	0x1a, 0, 0        	DB	LOW(_null_function), HIGH(_null_function), UPPER(_null_function), LOW(_null_function), HIGH(_null_function), UPPER(_null_function), LOW(_null_function), HIGH(_null_function), UPPER(_null_function), LOW(_null_function), HIGH(_null_function), UPPER(_null_function)
002388   1a00     xorwf	0, 0x1, 0          
00238a   0020     dw	0x20  ;unknown opcode 
00238c   201a     addwfc	0x1a, 0, 0        
00238e   1a00     xorwf	0, 0x1, 0          
002390   0020     dw	0x20  ;unknown opcode 
                                           ; ; Starting pCode block for Ival
                                           _ep_in:
002392   2302     addwfc	0x2, 0x1, 0x1     	DB	LOW(_ep_in_cfg0), HIGH(_ep_in_cfg0), UPPER(_ep_in_cfg0), LOW(_ep_in_cfg0), HIGH(_ep_in_cfg0), UPPER(_ep_in_cfg0), LOW(_ep_in_cfg1), HIGH(_ep_in_cfg1), UPPER(_ep_in_cfg1), LOW(_ep_in_cfg2), HIGH(_ep_in_cfg2), UPPER(_ep_in_cfg2)
002394   0200     mulwf	0, 0               
002396   0023     dw	0x23  ;unknown opcode 
002398   2332     addwfc	0x32, 0x1, 0x1    
00239a   6200     cpfseq	0, 0              
00239c   0023     dw	0x23  ;unknown opcode 
                                           ; ; Starting pCode block for Ival
                                           _ep_out_cfg0:
00239e   002e     dw	0x2e  ;unknown opcode 	DB	LOW(_ep0_init), HIGH(_ep0_init), UPPER(_ep0_init), LOW(_null_function), HIGH(_null_function), UPPER(_null_function), LOW(_null_function), HIGH(_null_function), UPPER(_null_function), LOW(_null_function), HIGH(_null_function), UPPER(_null_function)
0023a0   1a00     xorwf	0, 0x1, 0          
0023a2   0020     dw	0x20  ;unknown opcode 
0023a4   201a     addwfc	0x1a, 0, 0        
0023a6   1a00     xorwf	0, 0x1, 0          
0023a8   0020     dw	0x20  ;unknown opcode 
0023aa   201a     addwfc	0x1a, 0, 0        	DB	LOW(_null_function), HIGH(_null_function), UPPER(_null_function), LOW(_null_function), HIGH(_null_function), UPPER(_null_function), LOW(_null_function), HIGH(_null_function), UPPER(_null_function), LOW(_null_function), HIGH(_null_function), UPPER(_null_function)
0023ac   1a00     xorwf	0, 0x1, 0          
0023ae   0020     dw	0x20  ;unknown opcode 
0023b0   201a     addwfc	0x1a, 0, 0        
0023b2   1a00     xorwf	0, 0x1, 0          
0023b4   0020     dw	0x20  ;unknown opcode 
0023b6   201a     addwfc	0x1a, 0, 0        	DB	LOW(_null_function), HIGH(_null_function), UPPER(_null_function), LOW(_null_function), HIGH(_null_function), UPPER(_null_function), LOW(_null_function), HIGH(_null_function), UPPER(_null_function), LOW(_null_function), HIGH(_null_function), UPPER(_null_function)
0023b8   1a00     xorwf	0, 0x1, 0          
0023ba   0020     dw	0x20  ;unknown opcode 
0023bc   201a     addwfc	0x1a, 0, 0        
0023be   1a00     xorwf	0, 0x1, 0          
0023c0   0020     dw	0x20  ;unknown opcode 
0023c2   201a     addwfc	0x1a, 0, 0        	DB	LOW(_null_function), HIGH(_null_function), UPPER(_null_function), LOW(_null_function), HIGH(_null_function), UPPER(_null_function), LOW(_null_function), HIGH(_null_function), UPPER(_null_function), LOW(_null_function), HIGH(_null_function), UPPER(_null_function)
0023c4   1a00     xorwf	0, 0x1, 0          
0023c6   0020     dw	0x20  ;unknown opcode 
0023c8   201a     addwfc	0x1a, 0, 0        
0023ca   1a00     xorwf	0, 0x1, 0          
0023cc   0020     dw	0x20  ;unknown opcode 
                                           ; ; Starting pCode block for Ival
                                           _ep_out_cfg1:
0023ce   002e     dw	0x2e  ;unknown opcode 	DB	LOW(_ep0_init), HIGH(_ep0_init), UPPER(_ep0_init), LOW(_ep1_out), HIGH(_ep1_out), UPPER(_ep1_out), LOW(_null_function), HIGH(_null_function), UPPER(_null_function), LOW(_null_function), HIGH(_null_function), UPPER(_null_function)
0023d0   3e00     incfsz	0, 0x1, 0         
0023d2   0000     nop                      
0023d4   201a     addwfc	0x1a, 0, 0        
0023d6   1a00     xorwf	0, 0x1, 0          
0023d8   0020     dw	0x20  ;unknown opcode 
0023da   201a     addwfc	0x1a, 0, 0        	DB	LOW(_null_function), HIGH(_null_function), UPPER(_null_function), LOW(_null_function), HIGH(_null_function), UPPER(_null_function), LOW(_null_function), HIGH(_null_function), UPPER(_null_function), LOW(_null_function), HIGH(_null_function), UPPER(_null_function)
0023dc   1a00     xorwf	0, 0x1, 0          
0023de   0020     dw	0x20  ;unknown opcode 
0023e0   201a     addwfc	0x1a, 0, 0        
0023e2   1a00     xorwf	0, 0x1, 0          
0023e4   0020     dw	0x20  ;unknown opcode 
0023e6   201a     addwfc	0x1a, 0, 0        	DB	LOW(_null_function), HIGH(_null_function), UPPER(_null_function), LOW(_null_function), HIGH(_null_function), UPPER(_null_function), LOW(_null_function), HIGH(_null_function), UPPER(_null_function), LOW(_null_function), HIGH(_null_function), UPPER(_null_function)
0023e8   1a00     xorwf	0, 0x1, 0          
0023ea   0020     dw	0x20  ;unknown opcode 
0023ec   201a     addwfc	0x1a, 0, 0        
0023ee   1a00     xorwf	0, 0x1, 0          
0023f0   0020     dw	0x20  ;unknown opcode 
0023f2   201a     addwfc	0x1a, 0, 0        	DB	LOW(_null_function), HIGH(_null_function), UPPER(_null_function), LOW(_null_function), HIGH(_null_function), UPPER(_null_function), LOW(_null_function), HIGH(_null_function), UPPER(_null_function), LOW(_null_function), HIGH(_null_function), UPPER(_null_function)
0023f4   1a00     xorwf	0, 0x1, 0          
0023f6   0020     dw	0x20  ;unknown opcode 
0023f8   201a     addwfc	0x1a, 0, 0        
0023fa   1a00     xorwf	0, 0x1, 0          
0023fc   0020     dw	0x20  ;unknown opcode 
                                           ; ; Starting pCode block for Ival
                                           _ep_out_cfg2:
0023fe   002e     dw	0x2e  ;unknown opcode 	DB	LOW(_ep0_init), HIGH(_ep0_init), UPPER(_ep0_init), LOW(_my_ep1_out), HIGH(_my_ep1_out), UPPER(_my_ep1_out), LOW(_null_function), HIGH(_null_function), UPPER(_null_function), LOW(_null_function), HIGH(_null_function), UPPER(_null_function)
002400   ba00     btfsc	0, 0x5, 0          
002402   0025     dw	0x25  ;unknown opcode 
002404   201a     addwfc	0x1a, 0, 0        
002406   1a00     xorwf	0, 0x1, 0          
002408   0020     dw	0x20  ;unknown opcode 
00240a   201a     addwfc	0x1a, 0, 0        	DB	LOW(_null_function), HIGH(_null_function), UPPER(_null_function), LOW(_null_function), HIGH(_null_function), UPPER(_null_function), LOW(_null_function), HIGH(_null_function), UPPER(_null_function), LOW(_null_function), HIGH(_null_function), UPPER(_null_function)
00240c   1a00     xorwf	0, 0x1, 0          
00240e   0020     dw	0x20  ;unknown opcode 
002410   201a     addwfc	0x1a, 0, 0        
002412   1a00     xorwf	0, 0x1, 0          
002414   0020     dw	0x20  ;unknown opcode 
002416   201a     addwfc	0x1a, 0, 0        	DB	LOW(_null_function), HIGH(_null_function), UPPER(_null_function), LOW(_null_function), HIGH(_null_function), UPPER(_null_function), LOW(_null_function), HIGH(_null_function), UPPER(_null_function), LOW(_null_function), HIGH(_null_function), UPPER(_null_function)
002418   1a00     xorwf	0, 0x1, 0          
00241a   0020     dw	0x20  ;unknown opcode 
00241c   201a     addwfc	0x1a, 0, 0        
00241e   1a00     xorwf	0, 0x1, 0          
002420   0020     dw	0x20  ;unknown opcode 
002422   201a     addwfc	0x1a, 0, 0        	DB	LOW(_null_function), HIGH(_null_function), UPPER(_null_function), LOW(_null_function), HIGH(_null_function), UPPER(_null_function), LOW(_null_function), HIGH(_null_function), UPPER(_null_function), LOW(_null_function), HIGH(_null_function), UPPER(_null_function)
002424   1a00     xorwf	0, 0x1, 0          
002426   0020     dw	0x20  ;unknown opcode 
002428   201a     addwfc	0x1a, 0, 0        
00242a   1a00     xorwf	0, 0x1, 0          
00242c   0020     dw	0x20  ;unknown opcode 
                                           ; ; Starting pCode block for Ival
                                           _ep_out:
00242e   239e     addwfc	0x9e, 0x1, 0x1    	DB	LOW(_ep_out_cfg0), HIGH(_ep_out_cfg0), UPPER(_ep_out_cfg0), LOW(_ep_out_cfg0), HIGH(_ep_out_cfg0), UPPER(_ep_out_cfg0), LOW(_ep_out_cfg1), HIGH(_ep_out_cfg1), UPPER(_ep_out_cfg1), LOW(_ep_out_cfg2), HIGH(_ep_out_cfg2), UPPER(_ep_out_cfg2)
002430   9e00     bcf	0, 0x7, 0            
002432   0023     dw	0x23  ;unknown opcode 
002434   23ce     addwfc	0xce, 0x1, 0x1    
002436   fe00     dw	0xfe00  ;unknown opcode 
002438   0023     dw	0x23  ;unknown opcode 
                                           ; ; Starting pCode block for Ival
                                           _ep_setup_cfg0:
00243a   0036     dw	0x36  ;unknown opcode 	DB	LOW(_ep0_setup), HIGH(_ep0_setup), UPPER(_ep0_setup), LOW(_null_function), HIGH(_null_function), UPPER(_null_function), LOW(_null_function), HIGH(_null_function), UPPER(_null_function), LOW(_null_function), HIGH(_null_function), UPPER(_null_function)
00243c   1a00     xorwf	0, 0x1, 0          
00243e   0020     dw	0x20  ;unknown opcode 
002440   201a     addwfc	0x1a, 0, 0        
002442   1a00     xorwf	0, 0x1, 0          
002444   0020     dw	0x20  ;unknown opcode 
002446   201a     addwfc	0x1a, 0, 0        	DB	LOW(_null_function), HIGH(_null_function), UPPER(_null_function), LOW(_null_function), HIGH(_null_function), UPPER(_null_function), LOW(_null_function), HIGH(_null_function), UPPER(_null_function), LOW(_null_function), HIGH(_null_function), UPPER(_null_function)
002448   1a00     xorwf	0, 0x1, 0          
00244a   0020     dw	0x20  ;unknown opcode 
00244c   201a     addwfc	0x1a, 0, 0        
00244e   1a00     xorwf	0, 0x1, 0          
002450   0020     dw	0x20  ;unknown opcode 
002452   201a     addwfc	0x1a, 0, 0        	DB	LOW(_null_function), HIGH(_null_function), UPPER(_null_function), LOW(_null_function), HIGH(_null_function), UPPER(_null_function), LOW(_null_function), HIGH(_null_function), UPPER(_null_function), LOW(_null_function), HIGH(_null_function), UPPER(_null_function)
002454   1a00     xorwf	0, 0x1, 0          
002456   0020     dw	0x20  ;unknown opcode 
002458   201a     addwfc	0x1a, 0, 0        
00245a   1a00     xorwf	0, 0x1, 0          
00245c   0020     dw	0x20  ;unknown opcode 
00245e   201a     addwfc	0x1a, 0, 0        	DB	LOW(_null_function), HIGH(_null_function), UPPER(_null_function), LOW(_null_function), HIGH(_null_function), UPPER(_null_function), LOW(_null_function), HIGH(_null_function), UPPER(_null_function), LOW(_null_function), HIGH(_null_function), UPPER(_null_function)
002460   1a00     xorwf	0, 0x1, 0          
002462   0020     dw	0x20  ;unknown opcode 
002464   201a     addwfc	0x1a, 0, 0        
002466   1a00     xorwf	0, 0x1, 0          
002468   0020     dw	0x20  ;unknown opcode 
                                           ; ; Starting pCode block for Ival
                                           _ep_setup:
00246a   243a     addwf	0x3a, 0, 0         	DB	LOW(_ep_setup_cfg0), HIGH(_ep_setup_cfg0), UPPER(_ep_setup_cfg0), LOW(_ep_setup_cfg0), HIGH(_ep_setup_cfg0), UPPER(_ep_setup_cfg0), LOW(_ep_setup_cfg0), HIGH(_ep_setup_cfg0), UPPER(_ep_setup_cfg0), LOW(_ep_setup_cfg0), HIGH(_ep_setup_cfg0), UPPER(_ep_setup_cfg0)
00246c   3a00     swapf	0, 0x1, 0          
00246e   0024     dw	0x24  ;unknown opcode 
002470   243a     addwf	0x3a, 0, 0         
002472   3a00     swapf	0, 0x1, 0          
002474   0024     dw	0x24  ;unknown opcode 
                                           
                                           
                                           ; Statistics:
                                           ; code size:	  142 (0x008e) bytes ( 0.11%)
                                           ;           	   71 (0x0047) words
                                           ; udata size:	    0 (0x0000) bytes ( 0.00%)
                                           ; access size:	    0 (0x0000) bytes
                                           
                                           
                                           	end
                                           ;--------------------------------------------------------
                                           ; File Created by SDCC : FreeWare ANSI-C Compiler
                                           ; Version 2.6.1 #4482 (Mar 15 2009)
                                           ; This file generated Tue May 19 12:00:28 2009
                                           ;--------------------------------------------------------
                                           ; PIC16 port for the Microchip 16-bit core micros
                                           ;--------------------------------------------------------
                                           	list	p=18f4550
                                           
                                           	radix dec
                                           
                                           ;--------------------------------------------------------
                                           ; public variables in this module
                                           ;--------------------------------------------------------
                                           	global _checksum
                                           	global _mydata
                                           	global _ep2_source_data
                                           	global _ep2_num_bytes_to_send
                                           	global _my_ep1_init
                                           	global _my_ep1_out
                                           	global _ep1_OutBuffer
                                           
                                           ;--------------------------------------------------------
                                           ; extern variables in this module
                                           ;--------------------------------------------------------
                                           	extern _ep_bdt
                                           	extern _SPPDATAbits
                                           	extern _SPPCFGbits
                                           	extern _SPPEPSbits
                                           	extern _SPPCONbits
                                           	extern _UFRMLbits
                                           	extern _UFRMHbits
                                           	extern _UIRbits
                                           	extern _UIEbits
                                           	extern _UEIRbits
                                           	extern _UEIEbits
                                           	extern _USTATbits
                                           	extern _UCONbits
                                           	extern _UADDRbits
                                           	extern _UCFGbits
                                           	extern _UEP0bits
                                           	extern _UEP1bits
                                           	extern _UEP2bits
                                           	extern _UEP3bits
                                           	extern _UEP4bits
                                           	extern _UEP5bits
                                           	extern _UEP6bits
                                           	extern _UEP7bits
                                           	extern _UEP8bits
                                           	extern _UEP9bits
                                           	extern _UEP10bits
                                           	extern _UEP11bits
                                           	extern _UEP12bits
                                           	extern _UEP13bits
                                           	extern _UEP14bits
                                           	extern _UEP15bits
                                           	extern _PORTAbits
                                           	extern _PORTBbits
                                           	extern _PORTCbits
                                           	extern _PORTDbits
                                           	extern _PORTEbits
                                           	extern _LATAbits
                                           	extern _LATBbits
                                           	extern _LATCbits
                                           	extern _LATDbits
                                           	extern _LATEbits
                                           	extern _TRISAbits
                                           	extern _TRISBbits
                                           	extern _TRISCbits
                                           	extern _TRISDbits
                                           	extern _TRISEbits
                                           	extern _OSCTUNEbits
                                           	extern _PIE1bits
                                           	extern _PIR1bits
                                           	extern _IPR1bits
                                           	extern _PIE2bits
                                           	extern _PIR2bits
                                           	extern _IPR2bits
                                           	extern _EECON1bits
                                           	extern _RCSTAbits
                                           	extern _TXSTAbits
                                           	extern _T3CONbits
                                           	extern _CMCONbits
                                           	extern _CVRCONbits
                                           	extern _ECCP1ASbits
                                           	extern _ECCP1DELbits
                                           	extern _BAUDCONbits
                                           	extern _CCP2CONbits
                                           	extern _CCP1CONbits
                                           	extern _ADCON2bits
                                           	extern _ADCON1bits
                                           	extern _ADCON0bits
                                           	extern _SSPCON2bits
                                           	extern _SSPCON1bits
                                           	extern _SSPSTATbits
                                           	extern _T2CONbits
                                           	extern _T1CONbits
                                           	extern _RCONbits
                                           	extern _WDTCONbits
                                           	extern _HLVDCONbits
                                           	extern _OSCCONbits
                                           	extern _T0CONbits
                                           	extern _STATUSbits
                                           	extern _FSR2Hbits
                                           	extern _BSRbits
                                           	extern _FSR1Hbits
                                           	extern _FSR0Hbits
                                           	extern _INTCON3bits
                                           	extern _INTCON2bits
                                           	extern _INTCONbits
                                           	extern _TBLPTRUbits
                                           	extern _PCLATHbits
                                           	extern _PCLATUbits
                                           	extern _STKPTRbits
                                           	extern _TOSUbits
                                           	extern _usb_device_state
                                           	extern _usb_active_cfg
                                           	extern _usb_active_alt_setting
                                           	extern _codeusecnt
                                           	extern _totol
                                           	extern _totoh
                                           	extern _SPPDATA
                                           	extern _SPPCFG
                                           	extern _SPPEPS
                                           	extern _SPPCON
                                           	extern _UFRML
                                           	extern _UFRMH
                                           	extern _UIR
                                           	extern _UIE
                                           	extern _UEIR
                                           	extern _UEIE
                                           	extern _USTAT
                                           	extern _UCON
                                           	extern _UADDR
                                           	extern _UCFG
                                           	extern _UEP0
                                           	extern _UEP1
                                           	extern _UEP2
                                           	extern _UEP3
                                           	extern _UEP4
                                           	extern _UEP5
                                           	extern _UEP6
                                           	extern _UEP7
                                           	extern _UEP8
                                           	extern _UEP9
                                           	extern _UEP10
                                           	extern _UEP11
                                           	extern _UEP12
                                           	extern _UEP13
                                           	extern _UEP14
                                           	extern _UEP15
                                           	extern _PORTA
                                           	extern _PORTB
                                           	extern _PORTC
                                           	extern _PORTD
                                           	extern _PORTE
                                           	extern _LATA
                                           	extern _LATB
                                           	extern _LATC
                                           	extern _LATD
                                           	extern _LATE
                                           	extern _TRISA
                                           	extern _TRISB
                                           	extern _TRISC
                                           	extern _TRISD
                                           	extern _TRISE
                                           	extern _OSCTUNE
                                           	extern _PIE1
                                           	extern _PIR1
                                           	extern _IPR1
                                           	extern _PIE2
                                           	extern _PIR2
                                           	extern _IPR2
                                           	extern _EECON1
                                           	extern _EECON2
                                           	extern _EEDATA
                                           	extern _EEADR
                                           	extern _RCSTA
                                           	extern _TXSTA
                                           	extern _TXREG
                                           	extern _RCREG
                                           	extern _SPBRG
                                           	extern _SPBRGH
                                           	extern _T3CON
                                           	extern _TMR3L
                                           	extern _TMR3H
                                           	extern _CMCON
                                           	extern _CVRCON
                                           	extern _ECCP1AS
                                           	extern _ECCP1DEL
                                           	extern _BAUDCON
                                           	extern _CCP2CON
                                           	extern _CCPR2L
                                           	extern _CCPR2H
                                           	extern _CCP1CON
                                           	extern _CCPR1L
                                           	extern _CCPR1H
                                           	extern _ADCON2
                                           	extern _ADCON1
                                           	extern _ADCON0
                                           	extern _ADRESL
                                           	extern _ADRESH
                                           	extern _SSPCON2
                                           	extern _SSPCON1
                                           	extern _SSPSTAT
                                           	extern _SSPADD
                                           	extern _SSPBUF
                                           	extern _T2CON
                                           	extern _PR2
                                           	extern _TMR2
                                           	extern _T1CON
                                           	extern _TMR1L
                                           	extern _TMR1H
                                           	extern _RCON
                                           	extern _WDTCON
                                           	extern _HLVDCON
                                           	extern _OSCCON
                                           	extern _T0CON
                                           	extern _TMR0L
                                           	extern _TMR0H
                                           	extern _STATUS
                                           	extern _FSR2L
                                           	extern _FSR2H
                                           	extern _PLUSW2
                                           	extern _PREINC2
                                           	extern _POSTDEC2
                                           	extern _POSTINC2
                                           	extern _INDF2
                                           	extern _BSR
                                           	extern _FSR1L
                                           	extern _FSR1H
                                           	extern _PLUSW1
                                           	extern _PREINC1
                                           	extern _POSTDEC1
                                           	extern _POSTINC1
                                           	extern _INDF1
                                           	extern _WREG
                                           	extern _FSR0L
                                           	extern _FSR0H
                                           	extern _PLUSW0
                                           	extern _PREINC0
                                           	extern _POSTDEC0
                                           	extern _POSTINC0
                                           	extern _INDF0
                                           	extern _INTCON3
                                           	extern _INTCON2
                                           	extern _INTCON
                                           	extern _PRODL
                                           	extern _PRODH
                                           	extern _TABLAT
                                           	extern _TBLPTRL
                                           	extern _TBLPTRH
                                           	extern _TBLPTRU
                                           	extern _PCL
                                           	extern _PCLATH
                                           	extern _PCLATU
                                           	extern _STKPTR
                                           	extern _TOSL
                                           	extern _TOSH
                                           	extern _TOSU
                                           	extern _my_prepare_ep2_in
                                           	extern _device_descriptor
                                           	extern _configuration_descriptor
                                           	extern _string_descriptor
                                           	extern _str0
                                           	extern _str1
                                           	extern _str2
                                           	extern _str3
                                           	extern _ep_init
                                           	extern _ep_in
                                           	extern _ep_out
                                           	extern _ep_setup
                                           ;--------------------------------------------------------
                                           ;	Equates to used internal registers
                                           ;--------------------------------------------------------
                                           STATUS	equ	0xfd8
                                           FSR1L	equ	0xfe1
                                           FSR2L	equ	0xfd9
                                           POSTDEC1	equ	0xfe5
                                           PREINC1	equ	0xfe4
                                           
                                           udata_my_ep1_0	udata
                                           _ep2_num_bytes_to_send	res	2
                                           
                                           udata_my_ep1_1	udata
                                           _ep2_source_data	res	3
                                           
                                           udata_my_ep1_2	udata
                                           _mydata	res	8
                                           
                                           udata_my_ep1_3	udata
                                           _checksum	res	1
                                           
                                           udata_my_ep1_4	udata
                                           iTemp0	res	1
                                           
                                           
                                           ustat_my_ep1_00	udata	0X0500
                                           _ep1_OutBuffer	res	64
                                           
                                           ;--------------------------------------------------------
                                           ; global & static initialisations
                                           ;--------------------------------------------------------
                                           ; I code from now on!
                                           ; ; Starting pCode block
                                           S_my_ep1__my_ep1_out	code
                                           _my_ep1_out:
                                           ;	.line	36; my_ep1.c	if(EP_OUT_BD(1).Cnt >= 1)
0025ba   c409     movff	0x409, 0x119       	MOVFF	(_ep_bdt + 9), (iTemp0 + 1)
0025bc   f119
0025be   0e01     movlw	0x1                	MOVLW	0x01
0025c0   0101     movlb	0x1                	BANKSEL	(iTemp0 + 1)
0025c2   5d19     subwf	0x19, 0, 0x1       	SUBWF	(iTemp0 + 1), W, B
0025c4   e322     bnc	0x260a               	BNC	_00117_DS_
                                           ; #	MOVF	_ep1_OutBuffer, W, B
                                           ; #	BTFSC	STATUS, 2
                                           ; #	GOTO	_00110_DS_
                                           ; #	MOVFF	_ep1_OutBuffer, _CCPR1L
                                           ; #	MOVF	(_ep1_OutBuffer + 1), W, B
                                           ; ;     peep 1 - test/jump to test/skip
0025c6   0105     movlb	0x5                	BANKSEL	_ep1_OutBuffer
                                           ;	.line	38; my_ep1.c	if(ep1_OutBuffer[0]) CCPR1L = ep1_OutBuffer[0];
0025c8   5100     movf	0, 0, 0x1           	MOVF	_ep1_OutBuffer, W, B
                                           ;	.line	39; my_ep1.c	if(ep1_OutBuffer[1]) CCPR2L = ep1_OutBuffer[1];
0025ca   a4d8     btfss	0xd8, 0x2, 0       	BTFSS	STATUS, 2
0025cc   c500     movff	0x500, 0xfbe       	MOVFF	_ep1_OutBuffer, _CCPR1L
0025ce   ffbe
                                           ; #	MOVF	(_ep1_OutBuffer + 1), W, B
                                           ; #	BTFSC	STATUS, 2
                                           ; #	GOTO	_00112_DS_
                                           ; #	MOVFF	(_ep1_OutBuffer + 1), _CCPR2L
                                           ; #	MOVLW	0x08
                                           ; ;     peep 1 - test/jump to test/skip
                                           ; removed redundant BANKSEL
                                           ;	.line	41; my_ep1.c	ep2_num_bytes_to_send = 8;
0025d0   5101     movf	0x1, 0, 0x1         	MOVF	(_ep1_OutBuffer + 1), W, B
0025d2   a4d8     btfss	0xd8, 0x2, 0       	BTFSS	STATUS, 2
0025d4   c501     movff	0x501, 0xfbb       	MOVFF	(_ep1_OutBuffer + 1), _CCPR2L
0025d6   ffbb
0025d8   0e08     movlw	0x8                	MOVLW	0x08
0025da   0101     movlb	0x1                	BANKSEL	_ep2_num_bytes_to_send
0025dc   6f13     movwf	0x13, 0x1          	MOVWF	_ep2_num_bytes_to_send, B
                                           ; removed redundant BANKSEL
0025de   6b14     clrf	0x14, 0x1           	CLRF	(_ep2_num_bytes_to_send + 1), B
                                           ;	.line	42; my_ep1.c	ep2_source_data = (unsigned char*) codeusecnt;
0025e0   0e01     movlw	0x1                	MOVLW	HIGH(_codeusecnt)
0025e2   0101     movlb	0x1                	BANKSEL	(_ep2_source_data + 1)
0025e4   6f11     movwf	0x11, 0x1          	MOVWF	(_ep2_source_data + 1), B
0025e6   0e08     movlw	0x8                	MOVLW	LOW(_codeusecnt)
                                           ; removed redundant BANKSEL
0025e8   6f10     movwf	0x10, 0x1          	MOVWF	_ep2_source_data, B
0025ea   0e80     movlw	0x80               	MOVLW	0x80
                                           ; removed redundant BANKSEL
0025ec   6f12     movwf	0x12, 0x1          	MOVWF	(_ep2_source_data + 2), B
                                           ;	.line	44; my_ep1.c	my_prepare_ep2_in(); // Envoi
0025ee   ec8e     call	0x251c, 0           	CALL	_my_prepare_ep2_in
0025f0   f012
                                           ;	.line	46; my_ep1.c	EP_OUT_BD(1).Cnt = MY_EP1_BUFFER_SIZE;
0025f2   0e40     movlw	0x40               	MOVLW	0x40
0025f4   0104     movlb	0x4                	BANKSEL	(_ep_bdt + 9)
0025f6   6f09     movwf	0x9, 0x1           	MOVWF	(_ep_bdt + 9), B
                                           ; removed redundant BANKSEL
                                           ;	.line	47; my_ep1.c	if(EP_OUT_BD(1).Stat.DTS == 0)
0025f8   bd08     btfsc	0x8, 0x6, 0x1      	BTFSC	(_ep_bdt + 8), 6, B
0025fa   d003     bra	0x2602               	BRA	_00114_DS_
                                           ;	.line	49; my_ep1.c	EP_OUT_BD(1).Stat.uc = BDS_USIE | BDS_DAT1 | BDS_DTSEN;
0025fc   0ec8     movlw	0xc8               	MOVLW	0xc8
                                           ; removed redundant BANKSEL
0025fe   6f08     movwf	0x8, 0x1           	MOVWF	(_ep_bdt + 8), B
002600   d00c     bra	0x261a               	BRA	_00119_DS_
                                           _00114_DS_:
                                           ;	.line	53; my_ep1.c	EP_OUT_BD(1).Stat.uc = BDS_USIE | BDS_DAT0 | BDS_DTSEN;
002602   0e88     movlw	0x88               	MOVLW	0x88
002604   0104     movlb	0x4                	BANKSEL	(_ep_bdt + 8)
002606   6f08     movwf	0x8, 0x1           	MOVWF	(_ep_bdt + 8), B
002608   d008     bra	0x261a               	BRA	_00119_DS_
                                           _00117_DS_:
                                           ;	.line	58; my_ep1.c	EP_OUT_BD(1).Cnt = MY_EP1_BUFFER_SIZE;
00260a   0e40     movlw	0x40               	MOVLW	0x40
00260c   0104     movlb	0x4                	BANKSEL	(_ep_bdt + 9)
00260e   6f09     movwf	0x9, 0x1           	MOVWF	(_ep_bdt + 9), B
                                           ; removed redundant BANKSEL
                                           ;	.line	59; my_ep1.c	EP_OUT_BD(1).ADR = (uchar __data *)&ep1_OutBuffer;
002610   6b0a     clrf	0xa, 0x1            	CLRF	(_ep_bdt + 10), B
002612   0e05     movlw	0x5                	MOVLW	0x05
                                           ; removed redundant BANKSEL
002614   6f0b     movwf	0xb, 0x1           	MOVWF	(_ep_bdt + 11), B
                                           ;	.line	60; my_ep1.c	EP_OUT_BD(1).Stat.uc = BDS_USIE | BDS_BSTALL;
002616   0e84     movlw	0x84               	MOVLW	0x84
                                           ; removed redundant BANKSEL
002618   6f08     movwf	0x8, 0x1           	MOVWF	(_ep_bdt + 8), B
                                           _00119_DS_:
00261a   0012     return	0                 	RETURN	
                                           
                                           ; ; Starting pCode block
                                           S_my_ep1__my_ep1_init	code
                                           _my_ep1_init:
                                           ;	.line	28; my_ep1.c	EP_OUT_BD(1).Cnt = MY_EP1_BUFFER_SIZE;
00268c   0e40     movlw	0x40               	MOVLW	0x40
00268e   0104     movlb	0x4                	BANKSEL	(_ep_bdt + 9)
002690   6f09     movwf	0x9, 0x1           	MOVWF	(_ep_bdt + 9), B
                                           ; removed redundant BANKSEL
                                           ;	.line	29; my_ep1.c	EP_OUT_BD(1).ADR = (uchar __data *)&ep1_OutBuffer;
002692   6b0a     clrf	0xa, 0x1            	CLRF	(_ep_bdt + 10), B
002694   0e05     movlw	0x5                	MOVLW	0x05
                                           ; removed redundant BANKSEL
002696   6f0b     movwf	0xb, 0x1           	MOVWF	(_ep_bdt + 11), B
                                           ;	.line	30; my_ep1.c	EP_OUT_BD(1).Stat.uc = BDS_USIE | BDS_DAT0 | BDS_DTSEN;
002698   0e88     movlw	0x88               	MOVLW	0x88
                                           ; removed redundant BANKSEL
00269a   6f08     movwf	0x8, 0x1           	MOVWF	(_ep_bdt + 8), B
                                           ;	.line	31; my_ep1.c	UEP1 = EPHSHK_EN | EPOUTEN_EN | EPCONDIS_EN;       // Init EP1 as an OUT EP
00269c   0e1c     movlw	0x1c               	MOVLW	0x1c
00269e   6e71     movwf	0x71, 0            	MOVWF	_UEP1
0026a0   0012     return	0                 	RETURN	
                                           
                                           
                                           
                                           ; Statistics:
                                           ; code size:	  120 (0x0078) bytes ( 0.09%)
                                           ;           	   60 (0x003c) words
                                           ; udata size:	   79 (0x004f) bytes ( 4.41%)
                                           ; access size:	    0 (0x0000) bytes
                                           
                                           
                                           	end
                                           ;--------------------------------------------------------
                                           ; File Created by SDCC : FreeWare ANSI-C Compiler
                                           ; Version 2.6.1 #4482 (Mar 15 2009)
                                           ; This file generated Mon May 18 09:33:38 2009
                                           ;--------------------------------------------------------
                                           ; PIC16 port for the Microchip 16-bit core micros
                                           ;--------------------------------------------------------
                                           	list	p=18f4550
                                           
                                           	radix dec
                                           
                                           ;--------------------------------------------------------
                                           ; public variables in this module
                                           ;--------------------------------------------------------
                                           	global _my_ep2_init
                                           	global _my_prepare_ep2_in
                                           	global _my_ep2_in
                                           
                                           ;--------------------------------------------------------
                                           ; extern variables in this module
                                           ;--------------------------------------------------------
                                           	extern _ep2_num_bytes_to_send
                                           	extern _ep2_source_data
                                           	extern _ep_bdt
                                           	extern _SPPDATAbits
                                           	extern _SPPCFGbits
                                           	extern _SPPEPSbits
                                           	extern _SPPCONbits
                                           	extern _UFRMLbits
                                           	extern _UFRMHbits
                                           	extern _UIRbits
                                           	extern _UIEbits
                                           	extern _UEIRbits
                                           	extern _UEIEbits
                                           	extern _USTATbits
                                           	extern _UCONbits
                                           	extern _UADDRbits
                                           	extern _UCFGbits
                                           	extern _UEP0bits
                                           	extern _UEP1bits
                                           	extern _UEP2bits
                                           	extern _UEP3bits
                                           	extern _UEP4bits
                                           	extern _UEP5bits
                                           	extern _UEP6bits
                                           	extern _UEP7bits
                                           	extern _UEP8bits
                                           	extern _UEP9bits
                                           	extern _UEP10bits
                                           	extern _UEP11bits
                                           	extern _UEP12bits
                                           	extern _UEP13bits
                                           	extern _UEP14bits
                                           	extern _UEP15bits
                                           	extern _PORTAbits
                                           	extern _PORTBbits
                                           	extern _PORTCbits
                                           	extern _PORTDbits
                                           	extern _PORTEbits
                                           	extern _LATAbits
                                           	extern _LATBbits
                                           	extern _LATCbits
                                           	extern _LATDbits
                                           	extern _LATEbits
                                           	extern _TRISAbits
                                           	extern _TRISBbits
                                           	extern _TRISCbits
                                           	extern _TRISDbits
                                           	extern _TRISEbits
                                           	extern _OSCTUNEbits
                                           	extern _PIE1bits
                                           	extern _PIR1bits
                                           	extern _IPR1bits
                                           	extern _PIE2bits
                                           	extern _PIR2bits
                                           	extern _IPR2bits
                                           	extern _EECON1bits
                                           	extern _RCSTAbits
                                           	extern _TXSTAbits
                                           	extern _T3CONbits
                                           	extern _CMCONbits
                                           	extern _CVRCONbits
                                           	extern _ECCP1ASbits
                                           	extern _ECCP1DELbits
                                           	extern _BAUDCONbits
                                           	extern _CCP2CONbits
                                           	extern _CCP1CONbits
                                           	extern _ADCON2bits
                                           	extern _ADCON1bits
                                           	extern _ADCON0bits
                                           	extern _SSPCON2bits
                                           	extern _SSPCON1bits
                                           	extern _SSPSTATbits
                                           	extern _T2CONbits
                                           	extern _T1CONbits
                                           	extern _RCONbits
                                           	extern _WDTCONbits
                                           	extern _HLVDCONbits
                                           	extern _OSCCONbits
                                           	extern _T0CONbits
                                           	extern _STATUSbits
                                           	extern _FSR2Hbits
                                           	extern _BSRbits
                                           	extern _FSR1Hbits
                                           	extern _FSR0Hbits
                                           	extern _INTCON3bits
                                           	extern _INTCON2bits
                                           	extern _INTCONbits
                                           	extern _TBLPTRUbits
                                           	extern _PCLATHbits
                                           	extern _PCLATUbits
                                           	extern _STKPTRbits
                                           	extern _TOSUbits
                                           	extern _usb_device_state
                                           	extern _usb_active_cfg
                                           	extern _usb_active_alt_setting
                                           	extern _SPPDATA
                                           	extern _SPPCFG
                                           	extern _SPPEPS
                                           	extern _SPPCON
                                           	extern _UFRML
                                           	extern _UFRMH
                                           	extern _UIR
                                           	extern _UIE
                                           	extern _UEIR
                                           	extern _UEIE
                                           	extern _USTAT
                                           	extern _UCON
                                           	extern _UADDR
                                           	extern _UCFG
                                           	extern _UEP0
                                           	extern _UEP1
                                           	extern _UEP2
                                           	extern _UEP3
                                           	extern _UEP4
                                           	extern _UEP5
                                           	extern _UEP6
                                           	extern _UEP7
                                           	extern _UEP8
                                           	extern _UEP9
                                           	extern _UEP10
                                           	extern _UEP11
                                           	extern _UEP12
                                           	extern _UEP13
                                           	extern _UEP14
                                           	extern _UEP15
                                           	extern _PORTA
                                           	extern _PORTB
                                           	extern _PORTC
                                           	extern _PORTD
                                           	extern _PORTE
                                           	extern _LATA
                                           	extern _LATB
                                           	extern _LATC
                                           	extern _LATD
                                           	extern _LATE
                                           	extern _TRISA
                                           	extern _TRISB
                                           	extern _TRISC
                                           	extern _TRISD
                                           	extern _TRISE
                                           	extern _OSCTUNE
                                           	extern _PIE1
                                           	extern _PIR1
                                           	extern _IPR1
                                           	extern _PIE2
                                           	extern _PIR2
                                           	extern _IPR2
                                           	extern _EECON1
                                           	extern _EECON2
                                           	extern _EEDATA
                                           	extern _EEADR
                                           	extern _RCSTA
                                           	extern _TXSTA
                                           	extern _TXREG
                                           	extern _RCREG
                                           	extern _SPBRG
                                           	extern _SPBRGH
                                           	extern _T3CON
                                           	extern _TMR3L
                                           	extern _TMR3H
                                           	extern _CMCON
                                           	extern _CVRCON
                                           	extern _ECCP1AS
                                           	extern _ECCP1DEL
                                           	extern _BAUDCON
                                           	extern _CCP2CON
                                           	extern _CCPR2L
                                           	extern _CCPR2H
                                           	extern _CCP1CON
                                           	extern _CCPR1L
                                           	extern _CCPR1H
                                           	extern _ADCON2
                                           	extern _ADCON1
                                           	extern _ADCON0
                                           	extern _ADRESL
                                           	extern _ADRESH
                                           	extern _SSPCON2
                                           	extern _SSPCON1
                                           	extern _SSPSTAT
                                           	extern _SSPADD
                                           	extern _SSPBUF
                                           	extern _T2CON
                                           	extern _PR2
                                           	extern _TMR2
                                           	extern _T1CON
                                           	extern _TMR1L
                                           	extern _TMR1H
                                           	extern _RCON
                                           	extern _WDTCON
                                           	extern _HLVDCON
                                           	extern _OSCCON
                                           	extern _T0CON
                                           	extern _TMR0L
                                           	extern _TMR0H
                                           	extern _STATUS
                                           	extern _FSR2L
                                           	extern _FSR2H
                                           	extern _PLUSW2
                                           	extern _PREINC2
                                           	extern _POSTDEC2
                                           	extern _POSTINC2
                                           	extern _INDF2
                                           	extern _BSR
                                           	extern _FSR1L
                                           	extern _FSR1H
                                           	extern _PLUSW1
                                           	extern _PREINC1
                                           	extern _POSTDEC1
                                           	extern _POSTINC1
                                           	extern _INDF1
                                           	extern _WREG
                                           	extern _FSR0L
                                           	extern _FSR0H
                                           	extern _PLUSW0
                                           	extern _PREINC0
                                           	extern _POSTDEC0
                                           	extern _POSTINC0
                                           	extern _INDF0
                                           	extern _INTCON3
                                           	extern _INTCON2
                                           	extern _INTCON
                                           	extern _PRODL
                                           	extern _PRODH
                                           	extern _TABLAT
                                           	extern _TBLPTRL
                                           	extern _TBLPTRH
                                           	extern _TBLPTRU
                                           	extern _PCL
                                           	extern _PCLATH
                                           	extern _PCLATU
                                           	extern _STKPTR
                                           	extern _TOSL
                                           	extern _TOSH
                                           	extern _TOSU
                                           	extern _fill_in_buffer
                                           	extern _device_descriptor
                                           	extern _configuration_descriptor
                                           	extern _string_descriptor
                                           	extern _str0
                                           	extern _str1
                                           	extern _str2
                                           	extern _str3
                                           	extern _ep_init
                                           	extern _ep_in
                                           	extern _ep_out
                                           	extern _ep_setup
                                           ;--------------------------------------------------------
                                           ;	Equates to used internal registers
                                           ;--------------------------------------------------------
                                           STATUS	equ	0xfd8
                                           FSR1L	equ	0xfe1
                                           FSR2L	equ	0xfd9
                                           POSTDEC1	equ	0xfe5
                                           PREINC1	equ	0xfe4
                                           
                                           
                                           ; Internal registers
                                           .registers	udata_ovr	0x0000
                                           r0x00	res	1
                                           r0x01	res	1
                                           r0x02	res	1
                                           r0x03	res	1
                                           r0x04	res	1
                                           
                                           udata_my_ep2_0	udata
                                           _last_send_was_null	res	1
                                           
                                           ;--------------------------------------------------------
                                           ; global & static initialisations
                                           ;--------------------------------------------------------
                                           ; I code from now on!
                                           ; ; Starting pCode block
                                           S_my_ep2__my_ep2_in	code
                                           _my_ep2_in:
                                           ;	.line	60; my_ep2.c	void my_ep2_in(void)
002476   c000     movff	0, 0xfe5           	MOVFF	r0x00, POSTDEC1
002478   ffe5
00247a   c001     movff	0x1, 0xfe5         	MOVFF	r0x01, POSTDEC1
00247c   ffe5
00247e   c002     movff	0x2, 0xfe5         	MOVFF	r0x02, POSTDEC1
002480   ffe5
002482   c003     movff	0x3, 0xfe5         	MOVFF	r0x03, POSTDEC1
002484   ffe5
002486   c004     movff	0x4, 0xfe5         	MOVFF	r0x04, POSTDEC1
002488   ffe5
00248a   0101     movlb	0x1                	BANKSEL	_ep2_num_bytes_to_send
                                           ;	.line	62; my_ep2.c	if((ep2_num_bytes_to_send == 0) && last_send_was_null)
00248c   5113     movf	0x13, 0, 0x1        	MOVF	_ep2_num_bytes_to_send, W, B
                                           ; removed redundant BANKSEL
00248e   1114     iorwf	0x14, 0, 0x1       	IORWF	(_ep2_num_bytes_to_send + 1), W, B
002490   e104     bnz	0x249a               	BNZ	_00122_DS_
                                           ; #	MOVF	_last_send_was_null, W, B
                                           ; #	BTFSC	STATUS, 2
                                           ; #	GOTO	_00122_DS_
                                           ; #	GOTO	_00127_DS_
                                           ; #	MOVLW	0x00
                                           ; ;     peep 1 - test/jump to test/skip
002492   0101     movlb	0x1                	BANKSEL	_last_send_was_null
                                           ;	.line	66; my_ep2.c	return;
002494   5119     movf	0x19, 0, 0x1        	MOVF	_last_send_was_null, W, B
                                           ;	.line	68; my_ep2.c	last_send_was_null = (ep2_num_bytes_to_send < MY_EP2_BUFFER_SIZE);
002496   a4d8     btfss	0xd8, 0x2, 0       	BTFSS	STATUS, 2
002498   d036     bra	0x2506               	BRA	_00127_DS_
                                           _00122_DS_:
00249a   0e00     movlw	0                  	MOVLW	0x00
00249c   0101     movlb	0x1                	BANKSEL	(_ep2_num_bytes_to_send + 1)
00249e   5d14     subwf	0x14, 0, 0x1       	SUBWF	(_ep2_num_bytes_to_send + 1), W, B
0024a0   e102     bnz	0x24a6               	BNZ	_00133_DS_
0024a2   0e40     movlw	0x40               	MOVLW	0x40
                                           ; removed redundant BANKSEL
0024a4   5d13     subwf	0x13, 0, 0x1       	SUBWF	_ep2_num_bytes_to_send, W, B
                                           _00133_DS_:
0024a6   70d8     btg	0xd8, 0, 0           	BTG	STATUS, 0
0024a8   0101     movlb	0x1                	BANKSEL	_last_send_was_null
0024aa   6b19     clrf	0x19, 0x1           	CLRF	_last_send_was_null, B
0024ac   3719     rlcf	0x19, 0x1, 0x1      	RLCF	_last_send_was_null, F, B
                                           ; #	MOVF	_ep2_num_bytes_to_send, W, B
                                           ; #	MOVWF	r0x00
                                           ; #	MOVF	r0x00, W
                                           ; ;     peep 9c - Removed redundant move
0024ae   0101     movlb	0x1                	BANKSEL	_ep2_num_bytes_to_send
                                           ;	.line	69; my_ep2.c	EP_IN_BD(2).Cnt = ep2_num_bytes_to_send;
0024b0   5113     movf	0x13, 0, 0x1        	MOVF	_ep2_num_bytes_to_send, W, B
0024b2   0104     movlb	0x4                	BANKSEL	(_ep_bdt + 21)
0024b4   6f15     movwf	0x15, 0x1          	MOVWF	(_ep_bdt + 21), B
                                           ;	.line	70; my_ep2.c	fill_in_buffer(2, &ep2_source_data, MY_EP2_BUFFER_SIZE, &ep2_num_bytes_to_send);
0024b6   0e01     movlw	0x1                	MOVLW	HIGH(_ep2_source_data)
0024b8   6e01     movwf	0x1, 0             	MOVWF	r0x01
0024ba   0e10     movlw	0x10               	MOVLW	LOW(_ep2_source_data)
0024bc   6e00     movwf	0, 0               	MOVWF	r0x00
0024be   0e80     movlw	0x80               	MOVLW	0x80
0024c0   6e02     movwf	0x2, 0             	MOVWF	r0x02
0024c2   0e01     movlw	0x1                	MOVLW	HIGH(_ep2_num_bytes_to_send)
0024c4   6e04     movwf	0x4, 0             	MOVWF	r0x04
0024c6   0e13     movlw	0x13               	MOVLW	LOW(_ep2_num_bytes_to_send)
0024c8   6e03     movwf	0x3, 0             	MOVWF	r0x03
0024ca   0e80     movlw	0x80               	MOVLW	0x80
                                           ; #	MOVWF	r0x05
                                           ; #	MOVF	r0x05, W
                                           ; ;     peep 2 - Removed redundant move
0024cc   6ee5     movwf	0xe5, 0            	MOVWF	POSTDEC1
0024ce   5004     movf	0x4, 0, 0           	MOVF	r0x04, W
0024d0   6ee5     movwf	0xe5, 0            	MOVWF	POSTDEC1
0024d2   5003     movf	0x3, 0, 0           	MOVF	r0x03, W
0024d4   6ee5     movwf	0xe5, 0            	MOVWF	POSTDEC1
0024d6   6ae5     clrf	0xe5, 0             	CLRF	POSTDEC1
0024d8   0e40     movlw	0x40               	MOVLW	0x40
0024da   6ee5     movwf	0xe5, 0            	MOVWF	POSTDEC1
0024dc   5002     movf	0x2, 0, 0           	MOVF	r0x02, W
0024de   6ee5     movwf	0xe5, 0            	MOVWF	POSTDEC1
0024e0   5001     movf	0x1, 0, 0           	MOVF	r0x01, W
0024e2   6ee5     movwf	0xe5, 0            	MOVWF	POSTDEC1
0024e4   5000     movf	0, 0, 0             	MOVF	r0x00, W
0024e6   6ee5     movwf	0xe5, 0            	MOVWF	POSTDEC1
0024e8   0e02     movlw	0x2                	MOVLW	0x02
0024ea   6ee5     movwf	0xe5, 0            	MOVWF	POSTDEC1
0024ec   ec15     call	0x2a, 0             	CALL	_fill_in_buffer
0024ee   f000
0024f0   0e09     movlw	0x9                	MOVLW	0x09
0024f2   26e1     addwf	0xe1, 0x1, 0       	ADDWF	FSR1L, F
0024f4   0104     movlb	0x4                	BANKSEL	(_ep_bdt + 20)
                                           ;	.line	71; my_ep2.c	if(EP_IN_BD(2).Stat.DTS == 0)
0024f6   bd14     btfsc	0x14, 0x6, 0x1     	BTFSC	(_ep_bdt + 20), 6, B
0024f8   d003     bra	0x2500               	BRA	_00125_DS_
                                           ;	.line	73; my_ep2.c	EP_IN_BD(2).Stat.uc = BDS_USIE | BDS_DAT1 | BDS_DTSEN;
0024fa   0ec8     movlw	0xc8               	MOVLW	0xc8
                                           ; removed redundant BANKSEL
0024fc   6f14     movwf	0x14, 0x1          	MOVWF	(_ep_bdt + 20), B
0024fe   d003     bra	0x2506               	BRA	_00127_DS_
                                           _00125_DS_:
                                           ;	.line	77; my_ep2.c	EP_IN_BD(2).Stat.uc = BDS_USIE | BDS_DAT0 | BDS_DTSEN;
002500   0e88     movlw	0x88               	MOVLW	0x88
002502   0104     movlb	0x4                	BANKSEL	(_ep_bdt + 20)
002504   6f14     movwf	0x14, 0x1          	MOVWF	(_ep_bdt + 20), B
                                           _00127_DS_:
002506   cfe4     movff	0xfe4, 0x4         	MOVFF	PREINC1, r0x04
002508   f004
00250a   cfe4     movff	0xfe4, 0x3         	MOVFF	PREINC1, r0x03
00250c   f003
00250e   cfe4     movff	0xfe4, 0x2         	MOVFF	PREINC1, r0x02
002510   f002
002512   cfe4     movff	0xfe4, 0x1         	MOVFF	PREINC1, r0x01
002514   f001
002516   cfe4     movff	0xfe4, 0           	MOVFF	PREINC1, r0x00
002518   f000
00251a   0012     return	0                 	RETURN	
                                           
                                           ; ; Starting pCode block
                                           S_my_ep2__my_prepare_ep2_in	code
                                           _my_prepare_ep2_in:
                                           ;	.line	44; my_ep2.c	void my_prepare_ep2_in(void)
00251c   c000     movff	0, 0xfe5           	MOVFF	r0x00, POSTDEC1
00251e   ffe5
002520   c001     movff	0x1, 0xfe5         	MOVFF	r0x01, POSTDEC1
002522   ffe5
002524   c002     movff	0x2, 0xfe5         	MOVFF	r0x02, POSTDEC1
002526   ffe5
002528   c003     movff	0x3, 0xfe5         	MOVFF	r0x03, POSTDEC1
00252a   ffe5
00252c   c004     movff	0x4, 0xfe5         	MOVFF	r0x04, POSTDEC1
00252e   ffe5
                                           ;	.line	46; my_ep2.c	last_send_was_null = (ep2_num_bytes_to_send < MY_EP2_BUFFER_SIZE);
002530   0e00     movlw	0                  	MOVLW	0x00
002532   0101     movlb	0x1                	BANKSEL	(_ep2_num_bytes_to_send + 1)
002534   5d14     subwf	0x14, 0, 0x1       	SUBWF	(_ep2_num_bytes_to_send + 1), W, B
002536   e102     bnz	0x253c               	BNZ	_00116_DS_
002538   0e40     movlw	0x40               	MOVLW	0x40
                                           ; removed redundant BANKSEL
00253a   5d13     subwf	0x13, 0, 0x1       	SUBWF	_ep2_num_bytes_to_send, W, B
                                           _00116_DS_:
00253c   70d8     btg	0xd8, 0, 0           	BTG	STATUS, 0
00253e   0101     movlb	0x1                	BANKSEL	_last_send_was_null
002540   6b19     clrf	0x19, 0x1           	CLRF	_last_send_was_null, B
002542   3719     rlcf	0x19, 0x1, 0x1      	RLCF	_last_send_was_null, F, B
                                           ; #	MOVF	_ep2_num_bytes_to_send, W, B
                                           ; #	MOVWF	r0x00
                                           ; #	MOVF	r0x00, W
                                           ; ;     peep 9c - Removed redundant move
002544   0101     movlb	0x1                	BANKSEL	_ep2_num_bytes_to_send
                                           ;	.line	47; my_ep2.c	EP_IN_BD(2).Cnt = ep2_num_bytes_to_send;
002546   5113     movf	0x13, 0, 0x1        	MOVF	_ep2_num_bytes_to_send, W, B
002548   0104     movlb	0x4                	BANKSEL	(_ep_bdt + 21)
00254a   6f15     movwf	0x15, 0x1          	MOVWF	(_ep_bdt + 21), B
                                           ;	.line	48; my_ep2.c	EP_IN_BD(2).ADR = (uchar __data *)&ep2_InBuffer;
00254c   0e40     movlw	0x40               	MOVLW	0x40
                                           ; removed redundant BANKSEL
00254e   6f16     movwf	0x16, 0x1          	MOVWF	(_ep_bdt + 22), B
002550   0e05     movlw	0x5                	MOVLW	0x05
                                           ; removed redundant BANKSEL
002552   6f17     movwf	0x17, 0x1          	MOVWF	(_ep_bdt + 23), B
                                           ;	.line	49; my_ep2.c	fill_in_buffer(2, &ep2_source_data, MY_EP2_BUFFER_SIZE, &ep2_num_bytes_to_send);
002554   0e01     movlw	0x1                	MOVLW	HIGH(_ep2_source_data)
002556   6e01     movwf	0x1, 0             	MOVWF	r0x01
002558   0e10     movlw	0x10               	MOVLW	LOW(_ep2_source_data)
00255a   6e00     movwf	0, 0               	MOVWF	r0x00
00255c   0e80     movlw	0x80               	MOVLW	0x80
00255e   6e02     movwf	0x2, 0             	MOVWF	r0x02
002560   0e01     movlw	0x1                	MOVLW	HIGH(_ep2_num_bytes_to_send)
002562   6e04     movwf	0x4, 0             	MOVWF	r0x04
002564   0e13     movlw	0x13               	MOVLW	LOW(_ep2_num_bytes_to_send)
002566   6e03     movwf	0x3, 0             	MOVWF	r0x03
002568   0e80     movlw	0x80               	MOVLW	0x80
                                           ; #	MOVWF	r0x05
                                           ; #	MOVF	r0x05, W
                                           ; ;     peep 2 - Removed redundant move
00256a   6ee5     movwf	0xe5, 0            	MOVWF	POSTDEC1
00256c   5004     movf	0x4, 0, 0           	MOVF	r0x04, W
00256e   6ee5     movwf	0xe5, 0            	MOVWF	POSTDEC1
002570   5003     movf	0x3, 0, 0           	MOVF	r0x03, W
002572   6ee5     movwf	0xe5, 0            	MOVWF	POSTDEC1
002574   6ae5     clrf	0xe5, 0             	CLRF	POSTDEC1
002576   0e40     movlw	0x40               	MOVLW	0x40
002578   6ee5     movwf	0xe5, 0            	MOVWF	POSTDEC1
00257a   5002     movf	0x2, 0, 0           	MOVF	r0x02, W
00257c   6ee5     movwf	0xe5, 0            	MOVWF	POSTDEC1
00257e   5001     movf	0x1, 0, 0           	MOVF	r0x01, W
002580   6ee5     movwf	0xe5, 0            	MOVWF	POSTDEC1
002582   5000     movf	0, 0, 0             	MOVF	r0x00, W
002584   6ee5     movwf	0xe5, 0            	MOVWF	POSTDEC1
002586   0e02     movlw	0x2                	MOVLW	0x02
002588   6ee5     movwf	0xe5, 0            	MOVWF	POSTDEC1
00258a   ec15     call	0x2a, 0             	CALL	_fill_in_buffer
00258c   f000
00258e   0e09     movlw	0x9                	MOVLW	0x09
002590   26e1     addwf	0xe1, 0x1, 0       	ADDWF	FSR1L, F
002592   0104     movlb	0x4                	BANKSEL	(_ep_bdt + 20)
                                           ;	.line	50; my_ep2.c	if(EP_IN_BD(2).Stat.DTS == 0)
002594   bd14     btfsc	0x14, 0x6, 0x1     	BTFSC	(_ep_bdt + 20), 6, B
002596   d003     bra	0x259e               	BRA	_00110_DS_
                                           ;	.line	52; my_ep2.c	EP_IN_BD(2).Stat.uc = BDS_USIE | BDS_DAT1 | BDS_DTSEN;
002598   0ec8     movlw	0xc8               	MOVLW	0xc8
                                           ; removed redundant BANKSEL
00259a   6f14     movwf	0x14, 0x1          	MOVWF	(_ep_bdt + 20), B
00259c   d003     bra	0x25a4               	BRA	_00112_DS_
                                           _00110_DS_:
                                           ;	.line	56; my_ep2.c	EP_IN_BD(2).Stat.uc = BDS_USIE | BDS_DAT0 | BDS_DTSEN;
00259e   0e88     movlw	0x88               	MOVLW	0x88
0025a0   0104     movlb	0x4                	BANKSEL	(_ep_bdt + 20)
0025a2   6f14     movwf	0x14, 0x1          	MOVWF	(_ep_bdt + 20), B
                                           _00112_DS_:
0025a4   cfe4     movff	0xfe4, 0x4         	MOVFF	PREINC1, r0x04
0025a6   f004
0025a8   cfe4     movff	0xfe4, 0x3         	MOVFF	PREINC1, r0x03
0025aa   f003
0025ac   cfe4     movff	0xfe4, 0x2         	MOVFF	PREINC1, r0x02
0025ae   f002
0025b0   cfe4     movff	0xfe4, 0x1         	MOVFF	PREINC1, r0x01
0025b2   f001
0025b4   cfe4     movff	0xfe4, 0           	MOVFF	PREINC1, r0x00
0025b6   f000
0025b8   0012     return	0                 	RETURN	
                                           
                                           ; ; Starting pCode block
                                           S_my_ep2__my_ep2_init	code
                                           _my_ep2_init:
                                           ;	.line	40; my_ep2.c	EP_IN_BD(2).Stat.uc = BDS_UCPU | BDS_DAT1 | BDS_DTSEN;
0026a2   0e48     movlw	0x48               	MOVLW	0x48
0026a4   0104     movlb	0x4                	BANKSEL	(_ep_bdt + 20)
0026a6   6f14     movwf	0x14, 0x1          	MOVWF	(_ep_bdt + 20), B
                                           ;	.line	41; my_ep2.c	UEP2 = EPHSHK_EN | EPINEN_EN | EPCONDIS_EN;       // Init EP2 as an IN EP
0026a8   0e1a     movlw	0x1a               	MOVLW	0x1a
0026aa   6e72     movwf	0x72, 0            	MOVWF	_UEP2
0026ac   0012     return	0                 	RETURN	
                                           
                                           
                                           
                                           ; Statistics:
                                           ; code size:	  336 (0x0150) bytes ( 0.26%)
                                           ;           	  168 (0x00a8) words
                                           ; udata size:	    1 (0x0001) bytes ( 0.06%)
                                           ; access size:	    5 (0x0005) bytes
                                           
                                           
                                           	end
                                           ;--------------------------------------------------------
                                           ; File Created by SDCC : FreeWare ANSI-C Compiler
                                           ; Version 2.6.1 #4482 (Mar 15 2009)
                                           ; This file generated Mon May 18 09:33:38 2009
                                           ;--------------------------------------------------------
                                           ; PIC16 port for the Microchip 16-bit core micros
                                           ;--------------------------------------------------------
                                           	list	p=18f4550
                                           
                                           	radix dec
                                           
                                           ;--------------------------------------------------------
                                           ; public variables in this module
                                           ;--------------------------------------------------------
                                           	global _init_codeuses
                                           	global _codeusecnt
                                           
                                           ;--------------------------------------------------------
                                           ; extern variables in this module
                                           ;--------------------------------------------------------
                                           	extern _SPPDATAbits
                                           	extern _SPPCFGbits
                                           	extern _SPPEPSbits
                                           	extern _SPPCONbits
                                           	extern _UFRMLbits
                                           	extern _UFRMHbits
                                           	extern _UIRbits
                                           	extern _UIEbits
                                           	extern _UEIRbits
                                           	extern _UEIEbits
                                           	extern _USTATbits
                                           	extern _UCONbits
                                           	extern _UADDRbits
                                           	extern _UCFGbits
                                           	extern _UEP0bits
                                           	extern _UEP1bits
                                           	extern _UEP2bits
                                           	extern _UEP3bits
                                           	extern _UEP4bits
                                           	extern _UEP5bits
                                           	extern _UEP6bits
                                           	extern _UEP7bits
                                           	extern _UEP8bits
                                           	extern _UEP9bits
                                           	extern _UEP10bits
                                           	extern _UEP11bits
                                           	extern _UEP12bits
                                           	extern _UEP13bits
                                           	extern _UEP14bits
                                           	extern _UEP15bits
                                           	extern _PORTAbits
                                           	extern _PORTBbits
                                           	extern _PORTCbits
                                           	extern _PORTDbits
                                           	extern _PORTEbits
                                           	extern _LATAbits
                                           	extern _LATBbits
                                           	extern _LATCbits
                                           	extern _LATDbits
                                           	extern _LATEbits
                                           	extern _TRISAbits
                                           	extern _TRISBbits
                                           	extern _TRISCbits
                                           	extern _TRISDbits
                                           	extern _TRISEbits
                                           	extern _OSCTUNEbits
                                           	extern _PIE1bits
                                           	extern _PIR1bits
                                           	extern _IPR1bits
                                           	extern _PIE2bits
                                           	extern _PIR2bits
                                           	extern _IPR2bits
                                           	extern _EECON1bits
                                           	extern _RCSTAbits
                                           	extern _TXSTAbits
                                           	extern _T3CONbits
                                           	extern _CMCONbits
                                           	extern _CVRCONbits
                                           	extern _ECCP1ASbits
                                           	extern _ECCP1DELbits
                                           	extern _BAUDCONbits
                                           	extern _CCP2CONbits
                                           	extern _CCP1CONbits
                                           	extern _ADCON2bits
                                           	extern _ADCON1bits
                                           	extern _ADCON0bits
                                           	extern _SSPCON2bits
                                           	extern _SSPCON1bits
                                           	extern _SSPSTATbits
                                           	extern _T2CONbits
                                           	extern _T1CONbits
                                           	extern _RCONbits
                                           	extern _WDTCONbits
                                           	extern _HLVDCONbits
                                           	extern _OSCCONbits
                                           	extern _T0CONbits
                                           	extern _STATUSbits
                                           	extern _FSR2Hbits
                                           	extern _BSRbits
                                           	extern _FSR1Hbits
                                           	extern _FSR0Hbits
                                           	extern _INTCON3bits
                                           	extern _INTCON2bits
                                           	extern _INTCONbits
                                           	extern _TBLPTRUbits
                                           	extern _PCLATHbits
                                           	extern _PCLATUbits
                                           	extern _STKPTRbits
                                           	extern _TOSUbits
                                           	extern _SPPDATA
                                           	extern _SPPCFG
                                           	extern _SPPEPS
                                           	extern _SPPCON
                                           	extern _UFRML
                                           	extern _UFRMH
                                           	extern _UIR
                                           	extern _UIE
                                           	extern _UEIR
                                           	extern _UEIE
                                           	extern _USTAT
                                           	extern _UCON
                                           	extern _UADDR
                                           	extern _UCFG
                                           	extern _UEP0
                                           	extern _UEP1
                                           	extern _UEP2
                                           	extern _UEP3
                                           	extern _UEP4
                                           	extern _UEP5
                                           	extern _UEP6
                                           	extern _UEP7
                                           	extern _UEP8
                                           	extern _UEP9
                                           	extern _UEP10
                                           	extern _UEP11
                                           	extern _UEP12
                                           	extern _UEP13
                                           	extern _UEP14
                                           	extern _UEP15
                                           	extern _PORTA
                                           	extern _PORTB
                                           	extern _PORTC
                                           	extern _PORTD
                                           	extern _PORTE
                                           	extern _LATA
                                           	extern _LATB
                                           	extern _LATC
                                           	extern _LATD
                                           	extern _LATE
                                           	extern _TRISA
                                           	extern _TRISB
                                           	extern _TRISC
                                           	extern _TRISD
                                           	extern _TRISE
                                           	extern _OSCTUNE
                                           	extern _PIE1
                                           	extern _PIR1
                                           	extern _IPR1
                                           	extern _PIE2
                                           	extern _PIR2
                                           	extern _IPR2
                                           	extern _EECON1
                                           	extern _EECON2
                                           	extern _EEDATA
                                           	extern _EEADR
                                           	extern _RCSTA
                                           	extern _TXSTA
                                           	extern _TXREG
                                           	extern _RCREG
                                           	extern _SPBRG
                                           	extern _SPBRGH
                                           	extern _T3CON
                                           	extern _TMR3L
                                           	extern _TMR3H
                                           	extern _CMCON
                                           	extern _CVRCON
                                           	extern _ECCP1AS
                                           	extern _ECCP1DEL
                                           	extern _BAUDCON
                                           	extern _CCP2CON
                                           	extern _CCPR2L
                                           	extern _CCPR2H
                                           	extern _CCP1CON
                                           	extern _CCPR1L
                                           	extern _CCPR1H
                                           	extern _ADCON2
                                           	extern _ADCON1
                                           	extern _ADCON0
                                           	extern _ADRESL
                                           	extern _ADRESH
                                           	extern _SSPCON2
                                           	extern _SSPCON1
                                           	extern _SSPSTAT
                                           	extern _SSPADD
                                           	extern _SSPBUF
                                           	extern _T2CON
                                           	extern _PR2
                                           	extern _TMR2
                                           	extern _T1CON
                                           	extern _TMR1L
                                           	extern _TMR1H
                                           	extern _RCON
                                           	extern _WDTCON
                                           	extern _HLVDCON
                                           	extern _OSCCON
                                           	extern _T0CON
                                           	extern _TMR0L
                                           	extern _TMR0H
                                           	extern _STATUS
                                           	extern _FSR2L
                                           	extern _FSR2H
                                           	extern _PLUSW2
                                           	extern _PREINC2
                                           	extern _POSTDEC2
                                           	extern _POSTINC2
                                           	extern _INDF2
                                           	extern _BSR
                                           	extern _FSR1L
                                           	extern _FSR1H
                                           	extern _PLUSW1
                                           	extern _PREINC1
                                           	extern _POSTDEC1
                                           	extern _POSTINC1
                                           	extern _INDF1
                                           	extern _WREG
                                           	extern _FSR0L
                                           	extern _FSR0H
                                           	extern _PLUSW0
                                           	extern _PREINC0
                                           	extern _POSTDEC0
                                           	extern _POSTINC0
                                           	extern _INDF0
                                           	extern _INTCON3
                                           	extern _INTCON2
                                           	extern _INTCON
                                           	extern _PRODL
                                           	extern _PRODH
                                           	extern _TABLAT
                                           	extern _TBLPTRL
                                           	extern _TBLPTRH
                                           	extern _TBLPTRU
                                           	extern _PCL
                                           	extern _PCLATH
                                           	extern _PCLATU
                                           	extern _STKPTR
                                           	extern _TOSL
                                           	extern _TOSH
                                           	extern _TOSU
                                           ;--------------------------------------------------------
                                           ;	Equates to used internal registers
                                           ;--------------------------------------------------------
                                           FSR1L	equ	0xfe1
                                           FSR2L	equ	0xfd9
                                           POSTDEC1	equ	0xfe5
                                           PREINC1	equ	0xfe4
                                           
                                           udata_codeuses_0	udata
                                           _codeusecnt	res	8
                                           
                                           ;--------------------------------------------------------
                                           ; global & static initialisations
                                           ;--------------------------------------------------------
                                           ; I code from now on!
                                           ; ; Starting pCode block
                                           S_codeuses__init_codeuses	code
                                           _init_codeuses:
                                           ;	.line	9; codeuses.c	INTCON2bits.INTEDG0 = 0;
002658   9cf1     bcf	0xf1, 0x6, 0         	BCF	_INTCON2bits, 6
                                           ;	.line	10; codeuses.c	INTCON2bits.INTEDG1 = 0;
00265a   9af1     bcf	0xf1, 0x5, 0         	BCF	_INTCON2bits, 5
                                           ;	.line	11; codeuses.c	INTCONbits.INT0IE = 1;
00265c   88f2     bsf	0xf2, 0x4, 0         	BSF	_INTCONbits, 4
                                           ;	.line	12; codeuses.c	INTCON3bits.INT1IE = 1;
00265e   86f0     bsf	0xf0, 0x3, 0         	BSF	_INTCON3bits, 3
002660   0101     movlb	0x1                	BANKSEL	_codeusecnt
                                           ;	.line	13; codeuses.c	codeusecnt[0] = 0;
002662   6b08     clrf	0x8, 0x1            	CLRF	_codeusecnt, B
                                           ; removed redundant BANKSEL
002664   6b09     clrf	0x9, 0x1            	CLRF	(_codeusecnt + 1), B
                                           ; removed redundant BANKSEL
002666   6b0a     clrf	0xa, 0x1            	CLRF	(_codeusecnt + 2), B
                                           ; removed redundant BANKSEL
002668   6b0b     clrf	0xb, 0x1            	CLRF	(_codeusecnt + 3), B
                                           ; removed redundant BANKSEL
                                           ;	.line	14; codeuses.c	codeusecnt[1] = 0;
00266a   6b0c     clrf	0xc, 0x1            	CLRF	(_codeusecnt + 4), B
                                           ; removed redundant BANKSEL
00266c   6b0d     clrf	0xd, 0x1            	CLRF	(_codeusecnt + 5), B
                                           ; removed redundant BANKSEL
00266e   6b0e     clrf	0xe, 0x1            	CLRF	(_codeusecnt + 6), B
                                           ; removed redundant BANKSEL
002670   6b0f     clrf	0xf, 0x1            	CLRF	(_codeusecnt + 7), B
002672   0012     return	0                 	RETURN	
                                           
                                           
                                           
                                           ; Statistics:
                                           ; code size:	   28 (0x001c) bytes ( 0.02%)
                                           ;           	   14 (0x000e) words
                                           ; udata size:	    8 (0x0008) bytes ( 0.45%)
                                           ; access size:	    0 (0x0000) bytes
                                           
                                           
                                           	end
